target datalayout = "e-p:32:32:32-i1:8:8-i8:8:8-i16:16:16-i32:32:32-i64:64:64-f32:32:32-f64:64:64-f80:128:128-v64:64:64-v128:128:128-a0:0:64-f80:32:32-n8:16:32-S32"
target triple = "i686-pc-win32"

@llvm.global_ctors = appending global [1 x { i32, void ()* }] [{ i32, void ()* } { i32 65535, void ()* @_GLOBAL_CTORS_EXECUTE_ }]

declare i8* @malloc(i32) #99900

; Function Attrs: nounwind
declare void @llvm.memcpy.p0i8.p0i8.i32(i8* nocapture, i8* nocapture readonly, i32, i32, i1) #88801
declare void @llvm.memset.p0i8.i32(i8*, i8, i32, i32, i1) #88802

attributes #88801 = { nounwind }
attributes #88802 = { nounwind }

; Exception support - DWARF
declare i32 @__gxx_personality_v0(...) #78801
declare i8* @__cxa_allocate_exception(i32) #78802
declare void @__cxa_free_exception(i8*) #78803
declare void @__cxa_throw(i8*, i8*, i8*) #78804
; Function Attrs: nounwind readnone
declare i32 @llvm.eh.typeid.for(i8*) #78805
declare i8* @__cxa_begin_catch(i8*) #78806
declare void @__cxa_end_catch() #78807
declare void @__cxa_call_unexpected(i8*) #78808
declare void @__cxa_rethrow() #78809
; Function Attrs: nounwind readonly
declare i8* @__dynamic_cast(i8*, i8*, i8*, i32) #78810
; 'c++ new' Function Attrs: nobuiltin
declare noalias i8* @_Znwj(i32) #78811
; 'c++ delete' Function Attrs: nobuiltin nounwind
declare void @_ZdlPv(i8*) #78812
declare void @__cxa_pure_virtual() #78813

attributes #78805 = { nounwind readnone }
attributes #78810 = { nounwind readonly }
attributes #78811 = { nobuiltin }
attributes #78812 = { nobuiltin nounwind }

; RTTI externals
@_ZTVN10__cxxabiv116__enum_type_infoE = external global i8*
@_ZTVN10__cxxabiv117__array_type_infoE = external global i8*
@_ZTVN10__cxxabiv117__class_type_infoE = external global i8*
@_ZTVN10__cxxabiv119__pointer_type_infoE = external global i8*
@_ZTVN10__cxxabiv120__si_class_type_infoE = external global i8*
@_ZTVN10__cxxabiv120__function_type_infoE = external global i8*
@_ZTVN10__cxxabiv121__vmi_class_type_infoE = external global i8*
@_ZTVN10__cxxabiv123__fundamental_type_infoE = external global i8*
@_ZTVN10__cxxabiv129__pointer_to_member_type_infoE = external global i8*


%"System.Object" = type {
    i32 (...)**
    
}

@"System.Object Virtual Table" = linkonce_odr unnamed_addr constant [6 x i8*] [
    i8* null,
    i8* bitcast ({ i8*, i8* }* @"System.Object Info" to i8*),
    i8* bitcast (%"System.String"* (%"System.Object"*)* @"System.String System.Object.ToString()" to i8*),
    i8* bitcast (i1 (%"System.Object"*, %"System.Object"*)* @"Boolean System.Object.Equals(System.Object)" to i8*),
    i8* bitcast (i32 (%"System.Object"*)* @"Int32 System.Object.GetHashCode()" to i8*),
    i8* bitcast (void (%"System.Object"*)* @"Void System.Object.Finalize()" to i8*)
]

; RTTI class
@"System.Object String Name" = linkonce_odr constant [16 x i8] c"13System.Object\00"
@"System.Object Info" = linkonce_odr unnamed_addr constant { i8*, i8* } {
    i8* bitcast (i8** getelementptr inbounds (i8** @_ZTVN10__cxxabiv117__class_type_infoE, i32 2) to i8*),
    i8* getelementptr inbounds ([16 x i8]* @"System.Object String Name", i32 0, i32 0)
}
; RTTI pointer
@"System.Object Pointer String Name" = linkonce_odr constant [17 x i8] c"P13System.Object\00"
@"System.Object Pointer Info" = linkonce_odr unnamed_addr constant { i8*, i8*, i32, i8* } {
    i8* bitcast (i8** getelementptr inbounds (i8** @_ZTVN10__cxxabiv119__pointer_type_infoE, i32 2) to i8*),
    i8* getelementptr inbounds ([17 x i8]* @"System.Object Pointer String Name", i32 0, i32 0),
    i32 0,
    i8* bitcast ({ i8*, i8* }* @"System.Object Info" to i8*)
}

; Init Object method
define void @"Void System.Object..init()"(%"System.Object"* %arg.this) #0 {
    %this = alloca %"System.Object"*, align 4
    store %"System.Object"* %arg.this, %"System.Object"** %this, align 4
    %.r1 = load %"System.Object"** %this, align 4
    ; set virtual table
    %.r2 = bitcast %"System.Object"* %.r1 to i8***
    store i8** getelementptr inbounds ([6 x i8*]* @"System.Object Virtual Table", i64 0, i64 2), i8*** %.r2
    ret void
}



%"System.MarshalByRefObject" = type {
    %"System.Object"
}

@"System.MarshalByRefObject Virtual Table" = linkonce_odr unnamed_addr constant [6 x i8*] [
    i8* null,
    i8* bitcast ({ i8*, i8*, i8* }* @"System.MarshalByRefObject Info" to i8*),
    i8* bitcast (%"System.String"* (%"System.Object"*)* @"System.String System.Object.ToString()" to i8*),
    i8* bitcast (i1 (%"System.Object"*, %"System.Object"*)* @"Boolean System.Object.Equals(System.Object)" to i8*),
    i8* bitcast (i32 (%"System.Object"*)* @"Int32 System.Object.GetHashCode()" to i8*),
    i8* bitcast (void (%"System.Object"*)* @"Void System.Object.Finalize()" to i8*)
]

; RTTI class
@"System.MarshalByRefObject String Name" = linkonce_odr constant [28 x i8] c"25System.MarshalByRefObject\00"
@"System.MarshalByRefObject Info" = linkonce_odr unnamed_addr constant { i8*, i8*, i8* } {
    i8* bitcast (i8** getelementptr inbounds (i8** @_ZTVN10__cxxabiv120__si_class_type_infoE, i32 2) to i8*),
    i8* getelementptr inbounds ([28 x i8]* @"System.MarshalByRefObject String Name", i32 0, i32 0),
    i8* bitcast ({ i8*, i8* }* @"System.Object Info" to i8*)
}
; RTTI pointer
@"System.MarshalByRefObject Pointer String Name" = linkonce_odr constant [29 x i8] c"P25System.MarshalByRefObject\00"
@"System.MarshalByRefObject Pointer Info" = linkonce_odr unnamed_addr constant { i8*, i8*, i32, i8* } {
    i8* bitcast (i8** getelementptr inbounds (i8** @_ZTVN10__cxxabiv119__pointer_type_infoE, i32 2) to i8*),
    i8* getelementptr inbounds ([29 x i8]* @"System.MarshalByRefObject Pointer String Name", i32 0, i32 0),
    i32 0,
    i8* bitcast ({ i8*, i8*, i8* }* @"System.MarshalByRefObject Info" to i8*)
}

; Init Object method
define void @"Void System.MarshalByRefObject..init()"(%"System.MarshalByRefObject"* %arg.this) #1 {
    %this = alloca %"System.MarshalByRefObject"*, align 4
    store %"System.MarshalByRefObject"* %arg.this, %"System.MarshalByRefObject"** %this, align 4
    %.r1 = load %"System.MarshalByRefObject"** %this, align 4
    ; set virtual table
    %.r2 = bitcast %"System.MarshalByRefObject"* %.r1 to i8***
    store i8** getelementptr inbounds ([6 x i8*]* @"System.MarshalByRefObject Virtual Table", i64 0, i64 2), i8*** %.r2
    ret void
}



%"System.AppDomain" = type {
    %"System.MarshalByRefObject",
    %"System.Object"*,
    %"System.String"*
}

@"System.AppDomain Virtual Table" = linkonce_odr unnamed_addr constant [6 x i8*] [
    i8* null,
    i8* bitcast ({ i8*, i8*, i8* }* @"System.AppDomain Info" to i8*),
    i8* bitcast (%"System.String"* (%"System.Object"*)* @"System.String System.Object.ToString()" to i8*),
    i8* bitcast (i1 (%"System.Object"*, %"System.Object"*)* @"Boolean System.Object.Equals(System.Object)" to i8*),
    i8* bitcast (i32 (%"System.Object"*)* @"Int32 System.Object.GetHashCode()" to i8*),
    i8* bitcast (void (%"System.Object"*)* @"Void System.Object.Finalize()" to i8*)
]

; RTTI class
@"System.AppDomain String Name" = linkonce_odr constant [19 x i8] c"16System.AppDomain\00"
@"System.AppDomain Info" = linkonce_odr unnamed_addr constant { i8*, i8*, i8* } {
    i8* bitcast (i8** getelementptr inbounds (i8** @_ZTVN10__cxxabiv120__si_class_type_infoE, i32 2) to i8*),
    i8* getelementptr inbounds ([19 x i8]* @"System.AppDomain String Name", i32 0, i32 0),
    i8* bitcast ({ i8*, i8*, i8* }* @"System.MarshalByRefObject Info" to i8*)
}
; RTTI pointer
@"System.AppDomain Pointer String Name" = linkonce_odr constant [20 x i8] c"P16System.AppDomain\00"
@"System.AppDomain Pointer Info" = linkonce_odr unnamed_addr constant { i8*, i8*, i32, i8* } {
    i8* bitcast (i8** getelementptr inbounds (i8** @_ZTVN10__cxxabiv119__pointer_type_infoE, i32 2) to i8*),
    i8* getelementptr inbounds ([20 x i8]* @"System.AppDomain Pointer String Name", i32 0, i32 0),
    i32 0,
    i8* bitcast ({ i8*, i8*, i8* }* @"System.AppDomain Info" to i8*)
}

; Init Object method
define void @"Void System.AppDomain..init()"(%"System.AppDomain"* %arg.this) #2 {
    %this = alloca %"System.AppDomain"*, align 4
    store %"System.AppDomain"* %arg.this, %"System.AppDomain"** %this, align 4
    %.r1 = load %"System.AppDomain"** %this, align 4
    ; set virtual table
    %.r2 = bitcast %"System.AppDomain"* %.r1 to i8***
    store i8** getelementptr inbounds ([6 x i8*]* @"System.AppDomain Virtual Table", i64 0, i64 2), i8*** %.r2
    ret void
}



%"System.Exception" = type {
    %"System.Object",
    %"System.String"*,
    %"System.Exception"*,
    %"System.Object"*,
    i32
}

@"System.Exception Virtual Table" = linkonce_odr unnamed_addr constant [8 x i8*] [
    i8* null,
    i8* bitcast ({ i8*, i8*, i8* }* @"System.Exception Info" to i8*),
    i8* bitcast (%"System.String"* (%"System.Exception"*)* @"System.String System.Exception.ToString()" to i8*),
    i8* bitcast (i1 (%"System.Object"*, %"System.Object"*)* @"Boolean System.Object.Equals(System.Object)" to i8*),
    i8* bitcast (i32 (%"System.Object"*)* @"Int32 System.Object.GetHashCode()" to i8*),
    i8* bitcast (void (%"System.Object"*)* @"Void System.Object.Finalize()" to i8*),
    i8* bitcast (%"System.String"* (%"System.Exception"*)* @"System.String System.Exception.get_Message()" to i8*),
    i8* bitcast (%"System.String"* (%"System.Exception"*)* @"System.String System.Exception.get_StackTrace()" to i8*)
]

; RTTI class
@"System.Exception String Name" = linkonce_odr constant [19 x i8] c"16System.Exception\00"
@"System.Exception Info" = linkonce_odr unnamed_addr constant { i8*, i8*, i8* } {
    i8* bitcast (i8** getelementptr inbounds (i8** @_ZTVN10__cxxabiv120__si_class_type_infoE, i32 2) to i8*),
    i8* getelementptr inbounds ([19 x i8]* @"System.Exception String Name", i32 0, i32 0),
    i8* bitcast ({ i8*, i8* }* @"System.Object Info" to i8*)
}
; RTTI pointer
@"System.Exception Pointer String Name" = linkonce_odr constant [20 x i8] c"P16System.Exception\00"
@"System.Exception Pointer Info" = linkonce_odr unnamed_addr constant { i8*, i8*, i32, i8* } {
    i8* bitcast (i8** getelementptr inbounds (i8** @_ZTVN10__cxxabiv119__pointer_type_infoE, i32 2) to i8*),
    i8* getelementptr inbounds ([20 x i8]* @"System.Exception Pointer String Name", i32 0, i32 0),
    i32 0,
    i8* bitcast ({ i8*, i8*, i8* }* @"System.Exception Info" to i8*)
}

; Init Object method
define void @"Void System.Exception..init()"(%"System.Exception"* %arg.this) #3 {
    %this = alloca %"System.Exception"*, align 4
    store %"System.Exception"* %arg.this, %"System.Exception"** %this, align 4
    %.r1 = load %"System.Exception"** %this, align 4
    ; set virtual table
    %.r2 = bitcast %"System.Exception"* %.r1 to i8***
    store i8** getelementptr inbounds ([8 x i8*]* @"System.Exception Virtual Table", i64 0, i64 2), i8*** %.r2
    ret void
}



%"System.SystemException" = type {
    %"System.Exception"
}

@"System.SystemException Virtual Table" = linkonce_odr unnamed_addr constant [8 x i8*] [
    i8* null,
    i8* bitcast ({ i8*, i8*, i8* }* @"System.SystemException Info" to i8*),
    i8* bitcast (%"System.String"* (%"System.Exception"*)* @"System.String System.Exception.ToString()" to i8*),
    i8* bitcast (i1 (%"System.Object"*, %"System.Object"*)* @"Boolean System.Object.Equals(System.Object)" to i8*),
    i8* bitcast (i32 (%"System.Object"*)* @"Int32 System.Object.GetHashCode()" to i8*),
    i8* bitcast (void (%"System.Object"*)* @"Void System.Object.Finalize()" to i8*),
    i8* bitcast (%"System.String"* (%"System.Exception"*)* @"System.String System.Exception.get_Message()" to i8*),
    i8* bitcast (%"System.String"* (%"System.Exception"*)* @"System.String System.Exception.get_StackTrace()" to i8*)
]

; RTTI class
@"System.SystemException String Name" = linkonce_odr constant [25 x i8] c"22System.SystemException\00"
@"System.SystemException Info" = linkonce_odr unnamed_addr constant { i8*, i8*, i8* } {
    i8* bitcast (i8** getelementptr inbounds (i8** @_ZTVN10__cxxabiv120__si_class_type_infoE, i32 2) to i8*),
    i8* getelementptr inbounds ([25 x i8]* @"System.SystemException String Name", i32 0, i32 0),
    i8* bitcast ({ i8*, i8*, i8* }* @"System.Exception Info" to i8*)
}
; RTTI pointer
@"System.SystemException Pointer String Name" = linkonce_odr constant [26 x i8] c"P22System.SystemException\00"
@"System.SystemException Pointer Info" = linkonce_odr unnamed_addr constant { i8*, i8*, i32, i8* } {
    i8* bitcast (i8** getelementptr inbounds (i8** @_ZTVN10__cxxabiv119__pointer_type_infoE, i32 2) to i8*),
    i8* getelementptr inbounds ([26 x i8]* @"System.SystemException Pointer String Name", i32 0, i32 0),
    i32 0,
    i8* bitcast ({ i8*, i8*, i8* }* @"System.SystemException Info" to i8*)
}

; Init Object method
define void @"Void System.SystemException..init()"(%"System.SystemException"* %arg.this) #4 {
    %this = alloca %"System.SystemException"*, align 4
    store %"System.SystemException"* %arg.this, %"System.SystemException"** %this, align 4
    %.r1 = load %"System.SystemException"** %this, align 4
    ; set virtual table
    %.r2 = bitcast %"System.SystemException"* %.r1 to i8***
    store i8** getelementptr inbounds ([8 x i8*]* @"System.SystemException Virtual Table", i64 0, i64 2), i8*** %.r2
    ret void
}



%"System.AppDomainUnloadedException" = type {
    %"System.SystemException"
}

@"System.AppDomainUnloadedException Virtual Table" = linkonce_odr unnamed_addr constant [8 x i8*] [
    i8* null,
    i8* bitcast ({ i8*, i8*, i8* }* @"System.AppDomainUnloadedException Info" to i8*),
    i8* bitcast (%"System.String"* (%"System.Exception"*)* @"System.String System.Exception.ToString()" to i8*),
    i8* bitcast (i1 (%"System.Object"*, %"System.Object"*)* @"Boolean System.Object.Equals(System.Object)" to i8*),
    i8* bitcast (i32 (%"System.Object"*)* @"Int32 System.Object.GetHashCode()" to i8*),
    i8* bitcast (void (%"System.Object"*)* @"Void System.Object.Finalize()" to i8*),
    i8* bitcast (%"System.String"* (%"System.Exception"*)* @"System.String System.Exception.get_Message()" to i8*),
    i8* bitcast (%"System.String"* (%"System.Exception"*)* @"System.String System.Exception.get_StackTrace()" to i8*)
]

; RTTI class
@"System.AppDomainUnloadedException String Name" = linkonce_odr constant [36 x i8] c"33System.AppDomainUnloadedException\00"
@"System.AppDomainUnloadedException Info" = linkonce_odr unnamed_addr constant { i8*, i8*, i8* } {
    i8* bitcast (i8** getelementptr inbounds (i8** @_ZTVN10__cxxabiv120__si_class_type_infoE, i32 2) to i8*),
    i8* getelementptr inbounds ([36 x i8]* @"System.AppDomainUnloadedException String Name", i32 0, i32 0),
    i8* bitcast ({ i8*, i8*, i8* }* @"System.SystemException Info" to i8*)
}
; RTTI pointer
@"System.AppDomainUnloadedException Pointer String Name" = linkonce_odr constant [37 x i8] c"P33System.AppDomainUnloadedException\00"
@"System.AppDomainUnloadedException Pointer Info" = linkonce_odr unnamed_addr constant { i8*, i8*, i32, i8* } {
    i8* bitcast (i8** getelementptr inbounds (i8** @_ZTVN10__cxxabiv119__pointer_type_infoE, i32 2) to i8*),
    i8* getelementptr inbounds ([37 x i8]* @"System.AppDomainUnloadedException Pointer String Name", i32 0, i32 0),
    i32 0,
    i8* bitcast ({ i8*, i8*, i8* }* @"System.AppDomainUnloadedException Info" to i8*)
}

; Init Object method
define void @"Void System.AppDomainUnloadedException..init()"(%"System.AppDomainUnloadedException"* %arg.this) #5 {
    %this = alloca %"System.AppDomainUnloadedException"*, align 4
    store %"System.AppDomainUnloadedException"* %arg.this, %"System.AppDomainUnloadedException"** %this, align 4
    %.r1 = load %"System.AppDomainUnloadedException"** %this, align 4
    ; set virtual table
    %.r2 = bitcast %"System.AppDomainUnloadedException"* %.r1 to i8***
    store i8** getelementptr inbounds ([8 x i8*]* @"System.AppDomainUnloadedException Virtual Table", i64 0, i64 2), i8*** %.r2
    ret void
}



%"System.ApplicationException" = type {
    %"System.Exception"
}

@"System.ApplicationException Virtual Table" = linkonce_odr unnamed_addr constant [8 x i8*] [
    i8* null,
    i8* bitcast ({ i8*, i8*, i8* }* @"System.ApplicationException Info" to i8*),
    i8* bitcast (%"System.String"* (%"System.Exception"*)* @"System.String System.Exception.ToString()" to i8*),
    i8* bitcast (i1 (%"System.Object"*, %"System.Object"*)* @"Boolean System.Object.Equals(System.Object)" to i8*),
    i8* bitcast (i32 (%"System.Object"*)* @"Int32 System.Object.GetHashCode()" to i8*),
    i8* bitcast (void (%"System.Object"*)* @"Void System.Object.Finalize()" to i8*),
    i8* bitcast (%"System.String"* (%"System.Exception"*)* @"System.String System.Exception.get_Message()" to i8*),
    i8* bitcast (%"System.String"* (%"System.Exception"*)* @"System.String System.Exception.get_StackTrace()" to i8*)
]

; RTTI class
@"System.ApplicationException String Name" = linkonce_odr constant [30 x i8] c"27System.ApplicationException\00"
@"System.ApplicationException Info" = linkonce_odr unnamed_addr constant { i8*, i8*, i8* } {
    i8* bitcast (i8** getelementptr inbounds (i8** @_ZTVN10__cxxabiv120__si_class_type_infoE, i32 2) to i8*),
    i8* getelementptr inbounds ([30 x i8]* @"System.ApplicationException String Name", i32 0, i32 0),
    i8* bitcast ({ i8*, i8*, i8* }* @"System.Exception Info" to i8*)
}
; RTTI pointer
@"System.ApplicationException Pointer String Name" = linkonce_odr constant [31 x i8] c"P27System.ApplicationException\00"
@"System.ApplicationException Pointer Info" = linkonce_odr unnamed_addr constant { i8*, i8*, i32, i8* } {
    i8* bitcast (i8** getelementptr inbounds (i8** @_ZTVN10__cxxabiv119__pointer_type_infoE, i32 2) to i8*),
    i8* getelementptr inbounds ([31 x i8]* @"System.ApplicationException Pointer String Name", i32 0, i32 0),
    i32 0,
    i8* bitcast ({ i8*, i8*, i8* }* @"System.ApplicationException Info" to i8*)
}

; Init Object method
define void @"Void System.ApplicationException..init()"(%"System.ApplicationException"* %arg.this) #6 {
    %this = alloca %"System.ApplicationException"*, align 4
    store %"System.ApplicationException"* %arg.this, %"System.ApplicationException"** %this, align 4
    %.r1 = load %"System.ApplicationException"** %this, align 4
    ; set virtual table
    %.r2 = bitcast %"System.ApplicationException"* %.r1 to i8***
    store i8** getelementptr inbounds ([8 x i8*]* @"System.ApplicationException Virtual Table", i64 0, i64 2), i8*** %.r2
    ret void
}



%"System.ArgumentException" = type {
    %"System.SystemException",
    %"System.String"*
}

@"System.ArgumentException Virtual Table" = linkonce_odr unnamed_addr constant [9 x i8*] [
    i8* null,
    i8* bitcast ({ i8*, i8*, i8* }* @"System.ArgumentException Info" to i8*),
    i8* bitcast (%"System.String"* (%"System.Exception"*)* @"System.String System.Exception.ToString()" to i8*),
    i8* bitcast (i1 (%"System.Object"*, %"System.Object"*)* @"Boolean System.Object.Equals(System.Object)" to i8*),
    i8* bitcast (i32 (%"System.Object"*)* @"Int32 System.Object.GetHashCode()" to i8*),
    i8* bitcast (void (%"System.Object"*)* @"Void System.Object.Finalize()" to i8*),
    i8* bitcast (%"System.String"* (%"System.ArgumentException"*)* @"System.String System.ArgumentException.get_Message()" to i8*),
    i8* bitcast (%"System.String"* (%"System.Exception"*)* @"System.String System.Exception.get_StackTrace()" to i8*),
    i8* bitcast (%"System.String"* (%"System.ArgumentException"*)* @"System.String System.ArgumentException.get_ParamName()" to i8*)
]

; RTTI class
@"System.ArgumentException String Name" = linkonce_odr constant [27 x i8] c"24System.ArgumentException\00"
@"System.ArgumentException Info" = linkonce_odr unnamed_addr constant { i8*, i8*, i8* } {
    i8* bitcast (i8** getelementptr inbounds (i8** @_ZTVN10__cxxabiv120__si_class_type_infoE, i32 2) to i8*),
    i8* getelementptr inbounds ([27 x i8]* @"System.ArgumentException String Name", i32 0, i32 0),
    i8* bitcast ({ i8*, i8*, i8* }* @"System.SystemException Info" to i8*)
}
; RTTI pointer
@"System.ArgumentException Pointer String Name" = linkonce_odr constant [28 x i8] c"P24System.ArgumentException\00"
@"System.ArgumentException Pointer Info" = linkonce_odr unnamed_addr constant { i8*, i8*, i32, i8* } {
    i8* bitcast (i8** getelementptr inbounds (i8** @_ZTVN10__cxxabiv119__pointer_type_infoE, i32 2) to i8*),
    i8* getelementptr inbounds ([28 x i8]* @"System.ArgumentException Pointer String Name", i32 0, i32 0),
    i32 0,
    i8* bitcast ({ i8*, i8*, i8* }* @"System.ArgumentException Info" to i8*)
}

; Init Object method
define void @"Void System.ArgumentException..init()"(%"System.ArgumentException"* %arg.this) #7 {
    %this = alloca %"System.ArgumentException"*, align 4
    store %"System.ArgumentException"* %arg.this, %"System.ArgumentException"** %this, align 4
    %.r1 = load %"System.ArgumentException"** %this, align 4
    ; set virtual table
    %.r2 = bitcast %"System.ArgumentException"* %.r1 to i8***
    store i8** getelementptr inbounds ([9 x i8*]* @"System.ArgumentException Virtual Table", i64 0, i64 2), i8*** %.r2
    ret void
}



%"System.ArgumentNullException" = type {
    %"System.ArgumentException"
}

@"System.ArgumentNullException Virtual Table" = linkonce_odr unnamed_addr constant [9 x i8*] [
    i8* null,
    i8* bitcast ({ i8*, i8*, i8* }* @"System.ArgumentNullException Info" to i8*),
    i8* bitcast (%"System.String"* (%"System.Exception"*)* @"System.String System.Exception.ToString()" to i8*),
    i8* bitcast (i1 (%"System.Object"*, %"System.Object"*)* @"Boolean System.Object.Equals(System.Object)" to i8*),
    i8* bitcast (i32 (%"System.Object"*)* @"Int32 System.Object.GetHashCode()" to i8*),
    i8* bitcast (void (%"System.Object"*)* @"Void System.Object.Finalize()" to i8*),
    i8* bitcast (%"System.String"* (%"System.ArgumentException"*)* @"System.String System.ArgumentException.get_Message()" to i8*),
    i8* bitcast (%"System.String"* (%"System.Exception"*)* @"System.String System.Exception.get_StackTrace()" to i8*),
    i8* bitcast (%"System.String"* (%"System.ArgumentException"*)* @"System.String System.ArgumentException.get_ParamName()" to i8*)
]

; RTTI class
@"System.ArgumentNullException String Name" = linkonce_odr constant [31 x i8] c"28System.ArgumentNullException\00"
@"System.ArgumentNullException Info" = linkonce_odr unnamed_addr constant { i8*, i8*, i8* } {
    i8* bitcast (i8** getelementptr inbounds (i8** @_ZTVN10__cxxabiv120__si_class_type_infoE, i32 2) to i8*),
    i8* getelementptr inbounds ([31 x i8]* @"System.ArgumentNullException String Name", i32 0, i32 0),
    i8* bitcast ({ i8*, i8*, i8* }* @"System.ArgumentException Info" to i8*)
}
; RTTI pointer
@"System.ArgumentNullException Pointer String Name" = linkonce_odr constant [32 x i8] c"P28System.ArgumentNullException\00"
@"System.ArgumentNullException Pointer Info" = linkonce_odr unnamed_addr constant { i8*, i8*, i32, i8* } {
    i8* bitcast (i8** getelementptr inbounds (i8** @_ZTVN10__cxxabiv119__pointer_type_infoE, i32 2) to i8*),
    i8* getelementptr inbounds ([32 x i8]* @"System.ArgumentNullException Pointer String Name", i32 0, i32 0),
    i32 0,
    i8* bitcast ({ i8*, i8*, i8* }* @"System.ArgumentNullException Info" to i8*)
}

; Init Object method
define void @"Void System.ArgumentNullException..init()"(%"System.ArgumentNullException"* %arg.this) #8 {
    %this = alloca %"System.ArgumentNullException"*, align 4
    store %"System.ArgumentNullException"* %arg.this, %"System.ArgumentNullException"** %this, align 4
    %.r1 = load %"System.ArgumentNullException"** %this, align 4
    ; set virtual table
    %.r2 = bitcast %"System.ArgumentNullException"* %.r1 to i8***
    store i8** getelementptr inbounds ([9 x i8*]* @"System.ArgumentNullException Virtual Table", i64 0, i64 2), i8*** %.r2
    ret void
}



%"System.ArgumentOutOfRangeException" = type {
    %"System.ArgumentException"
}

@"System.ArgumentOutOfRangeException Virtual Table" = linkonce_odr unnamed_addr constant [9 x i8*] [
    i8* null,
    i8* bitcast ({ i8*, i8*, i8* }* @"System.ArgumentOutOfRangeException Info" to i8*),
    i8* bitcast (%"System.String"* (%"System.Exception"*)* @"System.String System.Exception.ToString()" to i8*),
    i8* bitcast (i1 (%"System.Object"*, %"System.Object"*)* @"Boolean System.Object.Equals(System.Object)" to i8*),
    i8* bitcast (i32 (%"System.Object"*)* @"Int32 System.Object.GetHashCode()" to i8*),
    i8* bitcast (void (%"System.Object"*)* @"Void System.Object.Finalize()" to i8*),
    i8* bitcast (%"System.String"* (%"System.ArgumentException"*)* @"System.String System.ArgumentException.get_Message()" to i8*),
    i8* bitcast (%"System.String"* (%"System.Exception"*)* @"System.String System.Exception.get_StackTrace()" to i8*),
    i8* bitcast (%"System.String"* (%"System.ArgumentException"*)* @"System.String System.ArgumentException.get_ParamName()" to i8*)
]

; RTTI class
@"System.ArgumentOutOfRangeException String Name" = linkonce_odr constant [37 x i8] c"34System.ArgumentOutOfRangeException\00"
@"System.ArgumentOutOfRangeException Info" = linkonce_odr unnamed_addr constant { i8*, i8*, i8* } {
    i8* bitcast (i8** getelementptr inbounds (i8** @_ZTVN10__cxxabiv120__si_class_type_infoE, i32 2) to i8*),
    i8* getelementptr inbounds ([37 x i8]* @"System.ArgumentOutOfRangeException String Name", i32 0, i32 0),
    i8* bitcast ({ i8*, i8*, i8* }* @"System.ArgumentException Info" to i8*)
}
; RTTI pointer
@"System.ArgumentOutOfRangeException Pointer String Name" = linkonce_odr constant [38 x i8] c"P34System.ArgumentOutOfRangeException\00"
@"System.ArgumentOutOfRangeException Pointer Info" = linkonce_odr unnamed_addr constant { i8*, i8*, i32, i8* } {
    i8* bitcast (i8** getelementptr inbounds (i8** @_ZTVN10__cxxabiv119__pointer_type_infoE, i32 2) to i8*),
    i8* getelementptr inbounds ([38 x i8]* @"System.ArgumentOutOfRangeException Pointer String Name", i32 0, i32 0),
    i32 0,
    i8* bitcast ({ i8*, i8*, i8* }* @"System.ArgumentOutOfRangeException Info" to i8*)
}

; Init Object method
define void @"Void System.ArgumentOutOfRangeException..init()"(%"System.ArgumentOutOfRangeException"* %arg.this) #9 {
    %this = alloca %"System.ArgumentOutOfRangeException"*, align 4
    store %"System.ArgumentOutOfRangeException"* %arg.this, %"System.ArgumentOutOfRangeException"** %this, align 4
    %.r1 = load %"System.ArgumentOutOfRangeException"** %this, align 4
    ; set virtual table
    %.r2 = bitcast %"System.ArgumentOutOfRangeException"* %.r1 to i8***
    store i8** getelementptr inbounds ([9 x i8*]* @"System.ArgumentOutOfRangeException Virtual Table", i64 0, i64 2), i8*** %.r2
    ret void
}



%"System.ICloneable" = type {
    i32 (...)**
    
}

; RTTI class
@"System.ICloneable String Name" = linkonce_odr constant [20 x i8] c"17System.ICloneable\00"
@"System.ICloneable Info" = linkonce_odr unnamed_addr constant { i8*, i8* } {
    i8* bitcast (i8** getelementptr inbounds (i8** @_ZTVN10__cxxabiv117__class_type_infoE, i32 2) to i8*),
    i8* getelementptr inbounds ([20 x i8]* @"System.ICloneable String Name", i32 0, i32 0)
}
; RTTI pointer
@"System.ICloneable Pointer String Name" = linkonce_odr constant [21 x i8] c"P17System.ICloneable\00"
@"System.ICloneable Pointer Info" = linkonce_odr unnamed_addr constant { i8*, i8*, i32, i8* } {
    i8* bitcast (i8** getelementptr inbounds (i8** @_ZTVN10__cxxabiv119__pointer_type_infoE, i32 2) to i8*),
    i8* getelementptr inbounds ([21 x i8]* @"System.ICloneable Pointer String Name", i32 0, i32 0),
    i32 0,
    i8* bitcast ({ i8*, i8* }* @"System.ICloneable Info" to i8*)
}

; Init Object method
define void @"Void System.ICloneable..init()"(%"System.ICloneable"* %arg.this) #10 {
    %this = alloca %"System.ICloneable"*, align 4
    store %"System.ICloneable"* %arg.this, %"System.ICloneable"** %this, align 4
    %.r1 = load %"System.ICloneable"** %this, align 4
    ret void
}



%"System.Attribute" = type {
    %"System.Object"
}

@"System.Attribute Virtual Table" = linkonce_odr unnamed_addr constant [6 x i8*] [
    i8* null,
    i8* bitcast ({ i8*, i8*, i8* }* @"System.Attribute Info" to i8*),
    i8* bitcast (%"System.String"* (%"System.Object"*)* @"System.String System.Object.ToString()" to i8*),
    i8* bitcast (i1 (%"System.Object"*, %"System.Object"*)* @"Boolean System.Object.Equals(System.Object)" to i8*),
    i8* bitcast (i32 (%"System.Object"*)* @"Int32 System.Object.GetHashCode()" to i8*),
    i8* bitcast (void (%"System.Object"*)* @"Void System.Object.Finalize()" to i8*)
]

; RTTI class
@"System.Attribute String Name" = linkonce_odr constant [19 x i8] c"16System.Attribute\00"
@"System.Attribute Info" = linkonce_odr unnamed_addr constant { i8*, i8*, i8* } {
    i8* bitcast (i8** getelementptr inbounds (i8** @_ZTVN10__cxxabiv120__si_class_type_infoE, i32 2) to i8*),
    i8* getelementptr inbounds ([19 x i8]* @"System.Attribute String Name", i32 0, i32 0),
    i8* bitcast ({ i8*, i8* }* @"System.Object Info" to i8*)
}
; RTTI pointer
@"System.Attribute Pointer String Name" = linkonce_odr constant [20 x i8] c"P16System.Attribute\00"
@"System.Attribute Pointer Info" = linkonce_odr unnamed_addr constant { i8*, i8*, i32, i8* } {
    i8* bitcast (i8** getelementptr inbounds (i8** @_ZTVN10__cxxabiv119__pointer_type_infoE, i32 2) to i8*),
    i8* getelementptr inbounds ([20 x i8]* @"System.Attribute Pointer String Name", i32 0, i32 0),
    i32 0,
    i8* bitcast ({ i8*, i8*, i8* }* @"System.Attribute Info" to i8*)
}

; Init Object method
define void @"Void System.Attribute..init()"(%"System.Attribute"* %arg.this) #11 {
    %this = alloca %"System.Attribute"*, align 4
    store %"System.Attribute"* %arg.this, %"System.Attribute"** %this, align 4
    %.r1 = load %"System.Attribute"** %this, align 4
    ; set virtual table
    %.r2 = bitcast %"System.Attribute"* %.r1 to i8***
    store i8** getelementptr inbounds ([6 x i8*]* @"System.Attribute Virtual Table", i64 0, i64 2), i8*** %.r2
    ret void
}



%"System.ValueType" = type {
    %"System.Object"
}

@"System.ValueType Virtual Table" = linkonce_odr unnamed_addr constant [6 x i8*] [
    i8* null,
    i8* bitcast ({ i8*, i8*, i8* }* @"System.ValueType Info" to i8*),
    i8* bitcast (%"System.String"* (%"System.ValueType"*)* @"System.String System.ValueType.ToString()" to i8*),
    i8* bitcast (i1 (%"System.ValueType"*, %"System.Object"*)* @"Boolean System.ValueType.Equals(System.Object)" to i8*),
    i8* bitcast (i32 (%"System.ValueType"*)* @"Int32 System.ValueType.GetHashCode()" to i8*),
    i8* bitcast (void (%"System.Object"*)* @"Void System.Object.Finalize()" to i8*)
]

; RTTI class
@"System.ValueType String Name" = linkonce_odr constant [19 x i8] c"16System.ValueType\00"
@"System.ValueType Info" = linkonce_odr unnamed_addr constant { i8*, i8*, i8* } {
    i8* bitcast (i8** getelementptr inbounds (i8** @_ZTVN10__cxxabiv120__si_class_type_infoE, i32 2) to i8*),
    i8* getelementptr inbounds ([19 x i8]* @"System.ValueType String Name", i32 0, i32 0),
    i8* bitcast ({ i8*, i8* }* @"System.Object Info" to i8*)
}
; RTTI pointer
@"System.ValueType Pointer String Name" = linkonce_odr constant [20 x i8] c"P16System.ValueType\00"
@"System.ValueType Pointer Info" = linkonce_odr unnamed_addr constant { i8*, i8*, i32, i8* } {
    i8* bitcast (i8** getelementptr inbounds (i8** @_ZTVN10__cxxabiv119__pointer_type_infoE, i32 2) to i8*),
    i8* getelementptr inbounds ([20 x i8]* @"System.ValueType Pointer String Name", i32 0, i32 0),
    i32 0,
    i8* bitcast ({ i8*, i8*, i8* }* @"System.ValueType Info" to i8*)
}

; Init Object method
define void @"Void System.ValueType..init()"(%"System.ValueType"* %arg.this) #12 {
    %this = alloca %"System.ValueType"*, align 4
    store %"System.ValueType"* %arg.this, %"System.ValueType"** %this, align 4
    %.r1 = load %"System.ValueType"** %this, align 4
    ; set virtual table
    %.r2 = bitcast %"System.ValueType"* %.r1 to i8***
    store i8** getelementptr inbounds ([6 x i8*]* @"System.ValueType Virtual Table", i64 0, i64 2), i8*** %.r2
    ret void
}



%"System.Enum" = type {
    %"System.ValueType"
}

@"System.Enum Virtual Table" = linkonce_odr unnamed_addr constant [6 x i8*] [
    i8* null,
    i8* bitcast ({ i8*, i8*, i8* }* @"System.Enum Info" to i8*),
    i8* bitcast (%"System.String"* (%"System.Enum"*)* @"System.String System.Enum.ToString()" to i8*),
    i8* bitcast (i1 (%"System.ValueType"*, %"System.Object"*)* @"Boolean System.ValueType.Equals(System.Object)" to i8*),
    i8* bitcast (i32 (%"System.ValueType"*)* @"Int32 System.ValueType.GetHashCode()" to i8*),
    i8* bitcast (void (%"System.Object"*)* @"Void System.Object.Finalize()" to i8*)
]

; RTTI class
@"System.Enum String Name" = linkonce_odr constant [14 x i8] c"11System.Enum\00"
@"System.Enum Info" = linkonce_odr unnamed_addr constant { i8*, i8*, i8* } {
    i8* bitcast (i8** getelementptr inbounds (i8** @_ZTVN10__cxxabiv120__si_class_type_infoE, i32 2) to i8*),
    i8* getelementptr inbounds ([14 x i8]* @"System.Enum String Name", i32 0, i32 0),
    i8* bitcast ({ i8*, i8*, i8* }* @"System.ValueType Info" to i8*)
}
; RTTI pointer
@"System.Enum Pointer String Name" = linkonce_odr constant [15 x i8] c"P11System.Enum\00"
@"System.Enum Pointer Info" = linkonce_odr unnamed_addr constant { i8*, i8*, i32, i8* } {
    i8* bitcast (i8** getelementptr inbounds (i8** @_ZTVN10__cxxabiv119__pointer_type_infoE, i32 2) to i8*),
    i8* getelementptr inbounds ([15 x i8]* @"System.Enum Pointer String Name", i32 0, i32 0),
    i32 0,
    i8* bitcast ({ i8*, i8*, i8* }* @"System.Enum Info" to i8*)
}

; Init Object method
define void @"Void System.Enum..init()"(%"System.Enum"* %arg.this) #13 {
    %this = alloca %"System.Enum"*, align 4
    store %"System.Enum"* %arg.this, %"System.Enum"** %this, align 4
    %.r1 = load %"System.Enum"** %this, align 4
    ; set virtual table
    %.r2 = bitcast %"System.Enum"* %.r1 to i8***
    store i8** getelementptr inbounds ([6 x i8*]* @"System.Enum Virtual Table", i64 0, i64 2), i8*** %.r2
    ret void
}



%"System.AttributeTargets" = type {
    %"System.Enum",
    i32
}

@"System.AttributeTargets Virtual Table" = linkonce_odr unnamed_addr constant [6 x i8*] [
    i8* null,
    i8* bitcast ({ i8*, i8*, i8* }* @"System.AttributeTargets Info" to i8*),
    i8* bitcast (%"System.String"* (%"System.Enum"*)* @"System.String System.Enum.ToString()" to i8*),
    i8* bitcast (i1 (%"System.ValueType"*, %"System.Object"*)* @"Boolean System.ValueType.Equals(System.Object)" to i8*),
    i8* bitcast (i32 (%"System.ValueType"*)* @"Int32 System.ValueType.GetHashCode()" to i8*),
    i8* bitcast (void (%"System.Object"*)* @"Void System.Object.Finalize()" to i8*)
]

; RTTI class
@"System.AttributeTargets String Name" = linkonce_odr constant [26 x i8] c"23System.AttributeTargets\00"
@"System.AttributeTargets Info" = linkonce_odr unnamed_addr constant { i8*, i8*, i8* } {
    i8* bitcast (i8** getelementptr inbounds (i8** @_ZTVN10__cxxabiv120__si_class_type_infoE, i32 2) to i8*),
    i8* getelementptr inbounds ([26 x i8]* @"System.AttributeTargets String Name", i32 0, i32 0),
    i8* bitcast ({ i8*, i8*, i8* }* @"System.Enum Info" to i8*)
}
; RTTI pointer
@"System.AttributeTargets Pointer String Name" = linkonce_odr constant [27 x i8] c"P23System.AttributeTargets\00"
@"System.AttributeTargets Pointer Info" = linkonce_odr unnamed_addr constant { i8*, i8*, i32, i8* } {
    i8* bitcast (i8** getelementptr inbounds (i8** @_ZTVN10__cxxabiv119__pointer_type_infoE, i32 2) to i8*),
    i8* getelementptr inbounds ([27 x i8]* @"System.AttributeTargets Pointer String Name", i32 0, i32 0),
    i32 0,
    i8* bitcast ({ i8*, i8*, i8* }* @"System.AttributeTargets Info" to i8*)
}

; Init Object method
define void @"Void System.AttributeTargets..init()"(%"System.AttributeTargets"* %arg.this) #14 {
    %this = alloca %"System.AttributeTargets"*, align 4
    store %"System.AttributeTargets"* %arg.this, %"System.AttributeTargets"** %this, align 4
    %.r1 = load %"System.AttributeTargets"** %this, align 4
    ; set virtual table
    %.r2 = bitcast %"System.AttributeTargets"* %.r1 to i8***
    store i8** getelementptr inbounds ([6 x i8*]* @"System.AttributeTargets Virtual Table", i64 0, i64 2), i8*** %.r2
    ret void
}

; Box method
define %"System.AttributeTargets"* @"System.AttributeTargets System.AttributeTargets..box(System.AttributeTargets)"(i32 %arg.value) #15 {
    %value = alloca i32, align 4
    store i32 %arg.value, i32* %value, align 4
    %.r1 = load i32* %value, align 4
    ; Boxing
    ; New obj
    %.r2 = call i8* @_Znwj(i32 4)
    call void @llvm.memset.p0i8.i32(i8* %.r2, i8 0, i32 4, i32 4, i1 false)
    %.r3 = bitcast i8* %.r2 to %"System.AttributeTargets"*
    ; call Init Object method
    call void @"Void System.AttributeTargets..init()"(%"System.AttributeTargets"* %.r3)
    ; end of new obj
    ; Copy data
    %.r4 = getelementptr inbounds %"System.AttributeTargets"* %.r3, i32 0, i32 1
    store i32 %.r1, i32* %.r4
    ; End of Copy data
    ret %"System.AttributeTargets"* %.r3
}

; Unbox method
define i32 @"System.AttributeTargets System.AttributeTargets..unbox()"(%"System.AttributeTargets"* %arg.this) #16 {
    %this = alloca %"System.AttributeTargets"*, align 4
    store %"System.AttributeTargets"* %arg.this, %"System.AttributeTargets"** %this, align 4
    %.r1 = load %"System.AttributeTargets"** %this, align 4
    ; Unboxing
    ; Copy data
    %.r2 = getelementptr inbounds %"System.AttributeTargets"* %.r1, i32 0, i32 1
    %.r3 = load i32* %.r2, align 4
    ; End of Copy data
    ret i32 %.r3
}



%"System.AttributeUsageAttribute" = type {
    %"System.Attribute",
    i32,
    i1,
    i1
}
@"System.AttributeUsageAttribute.Default" = global %"System.AttributeUsageAttribute"* undef

@"System.AttributeUsageAttribute Virtual Table" = linkonce_odr unnamed_addr constant [6 x i8*] [
    i8* null,
    i8* bitcast ({ i8*, i8*, i8* }* @"System.AttributeUsageAttribute Info" to i8*),
    i8* bitcast (%"System.String"* (%"System.Object"*)* @"System.String System.Object.ToString()" to i8*),
    i8* bitcast (i1 (%"System.Object"*, %"System.Object"*)* @"Boolean System.Object.Equals(System.Object)" to i8*),
    i8* bitcast (i32 (%"System.Object"*)* @"Int32 System.Object.GetHashCode()" to i8*),
    i8* bitcast (void (%"System.Object"*)* @"Void System.Object.Finalize()" to i8*)
]

; RTTI class
@"System.AttributeUsageAttribute String Name" = linkonce_odr constant [33 x i8] c"30System.AttributeUsageAttribute\00"
@"System.AttributeUsageAttribute Info" = linkonce_odr unnamed_addr constant { i8*, i8*, i8* } {
    i8* bitcast (i8** getelementptr inbounds (i8** @_ZTVN10__cxxabiv120__si_class_type_infoE, i32 2) to i8*),
    i8* getelementptr inbounds ([33 x i8]* @"System.AttributeUsageAttribute String Name", i32 0, i32 0),
    i8* bitcast ({ i8*, i8*, i8* }* @"System.Attribute Info" to i8*)
}
; RTTI pointer
@"System.AttributeUsageAttribute Pointer String Name" = linkonce_odr constant [34 x i8] c"P30System.AttributeUsageAttribute\00"
@"System.AttributeUsageAttribute Pointer Info" = linkonce_odr unnamed_addr constant { i8*, i8*, i32, i8* } {
    i8* bitcast (i8** getelementptr inbounds (i8** @_ZTVN10__cxxabiv119__pointer_type_infoE, i32 2) to i8*),
    i8* getelementptr inbounds ([34 x i8]* @"System.AttributeUsageAttribute Pointer String Name", i32 0, i32 0),
    i32 0,
    i8* bitcast ({ i8*, i8*, i8* }* @"System.AttributeUsageAttribute Info" to i8*)
}

; Init Object method
define void @"Void System.AttributeUsageAttribute..init()"(%"System.AttributeUsageAttribute"* %arg.this) #17 {
    %this = alloca %"System.AttributeUsageAttribute"*, align 4
    store %"System.AttributeUsageAttribute"* %arg.this, %"System.AttributeUsageAttribute"** %this, align 4
    %.r1 = load %"System.AttributeUsageAttribute"** %this, align 4
    ; set virtual table
    %.r2 = bitcast %"System.AttributeUsageAttribute"* %.r1 to i8***
    store i8** getelementptr inbounds ([6 x i8*]* @"System.AttributeUsageAttribute Virtual Table", i64 0, i64 2), i8*** %.r2
    ret void
}



%"System.Boolean" = type {
    %"System.ValueType",
    i1
}
@"Boolean.FalseString" = global %"System.String"* undef
@"Boolean.TrueString" = global %"System.String"* undef

@"System.Boolean Virtual Table" = linkonce_odr unnamed_addr constant [6 x i8*] [
    i8* null,
    i8* bitcast ({ i8*, i8*, i8* }* @"System.Boolean Info" to i8*),
    i8* bitcast (%"System.String"* (%"System.Boolean"*)* @"System.String System.Boolean.ToString()" to i8*),
    i8* bitcast (i1 (%"System.ValueType"*, %"System.Object"*)* @"Boolean System.ValueType.Equals(System.Object)" to i8*),
    i8* bitcast (i32 (%"System.ValueType"*)* @"Int32 System.ValueType.GetHashCode()" to i8*),
    i8* bitcast (void (%"System.Object"*)* @"Void System.Object.Finalize()" to i8*)
]

; RTTI class
@"System.Boolean String Name" = linkonce_odr constant [17 x i8] c"14System.Boolean\00"
@"System.Boolean Info" = linkonce_odr unnamed_addr constant { i8*, i8*, i8* } {
    i8* bitcast (i8** getelementptr inbounds (i8** @_ZTVN10__cxxabiv120__si_class_type_infoE, i32 2) to i8*),
    i8* getelementptr inbounds ([17 x i8]* @"System.Boolean String Name", i32 0, i32 0),
    i8* bitcast ({ i8*, i8*, i8* }* @"System.ValueType Info" to i8*)
}
; RTTI pointer
@"System.Boolean Pointer String Name" = linkonce_odr constant [18 x i8] c"P14System.Boolean\00"
@"System.Boolean Pointer Info" = linkonce_odr unnamed_addr constant { i8*, i8*, i32, i8* } {
    i8* bitcast (i8** getelementptr inbounds (i8** @_ZTVN10__cxxabiv119__pointer_type_infoE, i32 2) to i8*),
    i8* getelementptr inbounds ([18 x i8]* @"System.Boolean Pointer String Name", i32 0, i32 0),
    i32 0,
    i8* bitcast ({ i8*, i8*, i8* }* @"System.Boolean Info" to i8*)
}

; Init Object method
define void @"Void System.Boolean..init()"(%"System.Boolean"* %arg.this) #18 {
    %this = alloca %"System.Boolean"*, align 4
    store %"System.Boolean"* %arg.this, %"System.Boolean"** %this, align 4
    %.r1 = load %"System.Boolean"** %this, align 4
    ; set virtual table
    %.r2 = bitcast %"System.Boolean"* %.r1 to i8***
    store i8** getelementptr inbounds ([6 x i8*]* @"System.Boolean Virtual Table", i64 0, i64 2), i8*** %.r2
    ret void
}

; Box method
define %"System.Boolean"* @"System.Boolean System.Boolean..box(Boolean)"(i1 %arg.value) #19 {
    %value = alloca i1, align 4
    store i1 %arg.value, i1* %value, align 4
    %.r1 = load i1* %value, align 4
    ; Boxing
    ; New obj
    %.r2 = call i8* @_Znwj(i32 5)
    call void @llvm.memset.p0i8.i32(i8* %.r2, i8 0, i32 5, i32 4, i1 false)
    %.r3 = bitcast i8* %.r2 to %"System.Boolean"*
    ; call Init Object method
    call void @"Void System.Boolean..init()"(%"System.Boolean"* %.r3)
    ; end of new obj
    ; Copy data
    %.r4 = getelementptr inbounds %"System.Boolean"* %.r3, i32 0, i32 1
    store i1 %.r1, i1* %.r4
    ; End of Copy data
    ret %"System.Boolean"* %.r3
}

; Unbox method
define i1 @"Boolean System.Boolean..unbox()"(%"System.Boolean"* %arg.this) #20 {
    %this = alloca %"System.Boolean"*, align 4
    store %"System.Boolean"* %arg.this, %"System.Boolean"** %this, align 4
    %.r1 = load %"System.Boolean"** %this, align 4
    ; Unboxing
    ; Copy data
    %.r2 = getelementptr inbounds %"System.Boolean"* %.r1, i32 0, i32 1
    %.r3 = load i1* %.r2, align 4
    ; End of Copy data
    ret i1 %.r3
}



%"System.Byte" = type {
    %"System.ValueType",
    i8
}

@"System.Byte Virtual Table" = linkonce_odr unnamed_addr constant [6 x i8*] [
    i8* null,
    i8* bitcast ({ i8*, i8*, i8* }* @"System.Byte Info" to i8*),
    i8* bitcast (%"System.String"* (%"System.Byte"*)* @"System.String System.Byte.ToString()" to i8*),
    i8* bitcast (i1 (%"System.ValueType"*, %"System.Object"*)* @"Boolean System.ValueType.Equals(System.Object)" to i8*),
    i8* bitcast (i32 (%"System.ValueType"*)* @"Int32 System.ValueType.GetHashCode()" to i8*),
    i8* bitcast (void (%"System.Object"*)* @"Void System.Object.Finalize()" to i8*)
]

; RTTI class
@"System.Byte String Name" = linkonce_odr constant [14 x i8] c"11System.Byte\00"
@"System.Byte Info" = linkonce_odr unnamed_addr constant { i8*, i8*, i8* } {
    i8* bitcast (i8** getelementptr inbounds (i8** @_ZTVN10__cxxabiv120__si_class_type_infoE, i32 2) to i8*),
    i8* getelementptr inbounds ([14 x i8]* @"System.Byte String Name", i32 0, i32 0),
    i8* bitcast ({ i8*, i8*, i8* }* @"System.ValueType Info" to i8*)
}
; RTTI pointer
@"System.Byte Pointer String Name" = linkonce_odr constant [15 x i8] c"P11System.Byte\00"
@"System.Byte Pointer Info" = linkonce_odr unnamed_addr constant { i8*, i8*, i32, i8* } {
    i8* bitcast (i8** getelementptr inbounds (i8** @_ZTVN10__cxxabiv119__pointer_type_infoE, i32 2) to i8*),
    i8* getelementptr inbounds ([15 x i8]* @"System.Byte Pointer String Name", i32 0, i32 0),
    i32 0,
    i8* bitcast ({ i8*, i8*, i8* }* @"System.Byte Info" to i8*)
}

; Init Object method
define void @"Void System.Byte..init()"(%"System.Byte"* %arg.this) #21 {
    %this = alloca %"System.Byte"*, align 4
    store %"System.Byte"* %arg.this, %"System.Byte"** %this, align 4
    %.r1 = load %"System.Byte"** %this, align 4
    ; set virtual table
    %.r2 = bitcast %"System.Byte"* %.r1 to i8***
    store i8** getelementptr inbounds ([6 x i8*]* @"System.Byte Virtual Table", i64 0, i64 2), i8*** %.r2
    ret void
}

; Box method
define %"System.Byte"* @"System.Byte System.Byte..box(Byte)"(i8 %arg.value) #22 {
    %value = alloca i8, align 4
    store i8 %arg.value, i8* %value, align 4
    %.r1 = load i8* %value, align 4
    ; Boxing
    ; New obj
    %.r2 = call i8* @_Znwj(i32 5)
    call void @llvm.memset.p0i8.i32(i8* %.r2, i8 0, i32 5, i32 4, i1 false)
    %.r3 = bitcast i8* %.r2 to %"System.Byte"*
    ; call Init Object method
    call void @"Void System.Byte..init()"(%"System.Byte"* %.r3)
    ; end of new obj
    ; Copy data
    %.r4 = getelementptr inbounds %"System.Byte"* %.r3, i32 0, i32 1
    store i8 %.r1, i8* %.r4
    ; End of Copy data
    ret %"System.Byte"* %.r3
}

; Unbox method
define i8 @"Byte System.Byte..unbox()"(%"System.Byte"* %arg.this) #23 {
    %this = alloca %"System.Byte"*, align 4
    store %"System.Byte"* %arg.this, %"System.Byte"** %this, align 4
    %.r1 = load %"System.Byte"** %this, align 4
    ; Unboxing
    ; Copy data
    %.r2 = getelementptr inbounds %"System.Byte"* %.r1, i32 0, i32 1
    %.r3 = load i8* %.r2, align 4
    ; End of Copy data
    ret i8 %.r3
}



%"System.Char" = type {
    %"System.ValueType",
    i16
}

@"System.Char Virtual Table" = linkonce_odr unnamed_addr constant [6 x i8*] [
    i8* null,
    i8* bitcast ({ i8*, i8*, i8* }* @"System.Char Info" to i8*),
    i8* bitcast (%"System.String"* (%"System.Char"*)* @"System.String System.Char.ToString()" to i8*),
    i8* bitcast (i1 (%"System.ValueType"*, %"System.Object"*)* @"Boolean System.ValueType.Equals(System.Object)" to i8*),
    i8* bitcast (i32 (%"System.ValueType"*)* @"Int32 System.ValueType.GetHashCode()" to i8*),
    i8* bitcast (void (%"System.Object"*)* @"Void System.Object.Finalize()" to i8*)
]

; RTTI class
@"System.Char String Name" = linkonce_odr constant [14 x i8] c"11System.Char\00"
@"System.Char Info" = linkonce_odr unnamed_addr constant { i8*, i8*, i8* } {
    i8* bitcast (i8** getelementptr inbounds (i8** @_ZTVN10__cxxabiv120__si_class_type_infoE, i32 2) to i8*),
    i8* getelementptr inbounds ([14 x i8]* @"System.Char String Name", i32 0, i32 0),
    i8* bitcast ({ i8*, i8*, i8* }* @"System.ValueType Info" to i8*)
}
; RTTI pointer
@"System.Char Pointer String Name" = linkonce_odr constant [15 x i8] c"P11System.Char\00"
@"System.Char Pointer Info" = linkonce_odr unnamed_addr constant { i8*, i8*, i32, i8* } {
    i8* bitcast (i8** getelementptr inbounds (i8** @_ZTVN10__cxxabiv119__pointer_type_infoE, i32 2) to i8*),
    i8* getelementptr inbounds ([15 x i8]* @"System.Char Pointer String Name", i32 0, i32 0),
    i32 0,
    i8* bitcast ({ i8*, i8*, i8* }* @"System.Char Info" to i8*)
}

; Init Object method
define void @"Void System.Char..init()"(%"System.Char"* %arg.this) #24 {
    %this = alloca %"System.Char"*, align 4
    store %"System.Char"* %arg.this, %"System.Char"** %this, align 4
    %.r1 = load %"System.Char"** %this, align 4
    ; set virtual table
    %.r2 = bitcast %"System.Char"* %.r1 to i8***
    store i8** getelementptr inbounds ([6 x i8*]* @"System.Char Virtual Table", i64 0, i64 2), i8*** %.r2
    ret void
}

; Box method
define %"System.Char"* @"System.Char System.Char..box(Char)"(i16 %arg.value) #25 {
    %value = alloca i16, align 4
    store i16 %arg.value, i16* %value, align 4
    %.r1 = load i16* %value, align 4
    ; Boxing
    ; New obj
    %.r2 = call i8* @_Znwj(i32 6)
    call void @llvm.memset.p0i8.i32(i8* %.r2, i8 0, i32 6, i32 4, i1 false)
    %.r3 = bitcast i8* %.r2 to %"System.Char"*
    ; call Init Object method
    call void @"Void System.Char..init()"(%"System.Char"* %.r3)
    ; end of new obj
    ; Copy data
    %.r4 = getelementptr inbounds %"System.Char"* %.r3, i32 0, i32 1
    store i16 %.r1, i16* %.r4
    ; End of Copy data
    ret %"System.Char"* %.r3
}

; Unbox method
define i16 @"Char System.Char..unbox()"(%"System.Char"* %arg.this) #26 {
    %this = alloca %"System.Char"*, align 4
    store %"System.Char"* %arg.this, %"System.Char"** %this, align 4
    %.r1 = load %"System.Char"** %this, align 4
    ; Unboxing
    ; Copy data
    %.r2 = getelementptr inbounds %"System.Char"* %.r1, i32 0, i32 1
    %.r3 = load i16* %.r2, align 4
    ; End of Copy data
    ret i16 %.r3
}



%"System.IDisposable" = type {
    i32 (...)**
    
}

; RTTI class
@"System.IDisposable String Name" = linkonce_odr constant [21 x i8] c"18System.IDisposable\00"
@"System.IDisposable Info" = linkonce_odr unnamed_addr constant { i8*, i8* } {
    i8* bitcast (i8** getelementptr inbounds (i8** @_ZTVN10__cxxabiv117__class_type_infoE, i32 2) to i8*),
    i8* getelementptr inbounds ([21 x i8]* @"System.IDisposable String Name", i32 0, i32 0)
}
; RTTI pointer
@"System.IDisposable Pointer String Name" = linkonce_odr constant [22 x i8] c"P18System.IDisposable\00"
@"System.IDisposable Pointer Info" = linkonce_odr unnamed_addr constant { i8*, i8*, i32, i8* } {
    i8* bitcast (i8** getelementptr inbounds (i8** @_ZTVN10__cxxabiv119__pointer_type_infoE, i32 2) to i8*),
    i8* getelementptr inbounds ([22 x i8]* @"System.IDisposable Pointer String Name", i32 0, i32 0),
    i32 0,
    i8* bitcast ({ i8*, i8* }* @"System.IDisposable Info" to i8*)
}

; Init Object method
define void @"Void System.IDisposable..init()"(%"System.IDisposable"* %arg.this) #27 {
    %this = alloca %"System.IDisposable"*, align 4
    store %"System.IDisposable"* %arg.this, %"System.IDisposable"** %this, align 4
    %.r1 = load %"System.IDisposable"** %this, align 4
    ret void
}



%"System.Console" = type {
    %"System.Object"
}
@"System.Console.NewLine" = global %"System.String"* undef
@"System.Console.PrintString" = global %"System.String"* undef
@"System.Console.PrintDouble" = global %"System.String"* undef
@"System.Console.PrintInt" = global %"System.String"* undef
@"System.Console.PrintChar" = global %"System.String"* undef

@"System.Console Virtual Table" = linkonce_odr unnamed_addr constant [6 x i8*] [
    i8* null,
    i8* bitcast ({ i8*, i8*, i8* }* @"System.Console Info" to i8*),
    i8* bitcast (%"System.String"* (%"System.Object"*)* @"System.String System.Object.ToString()" to i8*),
    i8* bitcast (i1 (%"System.Object"*, %"System.Object"*)* @"Boolean System.Object.Equals(System.Object)" to i8*),
    i8* bitcast (i32 (%"System.Object"*)* @"Int32 System.Object.GetHashCode()" to i8*),
    i8* bitcast (void (%"System.Object"*)* @"Void System.Object.Finalize()" to i8*)
]

; RTTI class
@"System.Console String Name" = linkonce_odr constant [17 x i8] c"14System.Console\00"
@"System.Console Info" = linkonce_odr unnamed_addr constant { i8*, i8*, i8* } {
    i8* bitcast (i8** getelementptr inbounds (i8** @_ZTVN10__cxxabiv120__si_class_type_infoE, i32 2) to i8*),
    i8* getelementptr inbounds ([17 x i8]* @"System.Console String Name", i32 0, i32 0),
    i8* bitcast ({ i8*, i8* }* @"System.Object Info" to i8*)
}
; RTTI pointer
@"System.Console Pointer String Name" = linkonce_odr constant [18 x i8] c"P14System.Console\00"
@"System.Console Pointer Info" = linkonce_odr unnamed_addr constant { i8*, i8*, i32, i8* } {
    i8* bitcast (i8** getelementptr inbounds (i8** @_ZTVN10__cxxabiv119__pointer_type_infoE, i32 2) to i8*),
    i8* getelementptr inbounds ([18 x i8]* @"System.Console Pointer String Name", i32 0, i32 0),
    i32 0,
    i8* bitcast ({ i8*, i8*, i8* }* @"System.Console Info" to i8*)
}

; Init Object method
define void @"Void System.Console..init()"(%"System.Console"* %arg.this) #28 {
    %this = alloca %"System.Console"*, align 4
    store %"System.Console"* %arg.this, %"System.Console"** %this, align 4
    %.r1 = load %"System.Console"** %this, align 4
    ; set virtual table
    %.r2 = bitcast %"System.Console"* %.r1 to i8***
    store i8** getelementptr inbounds ([6 x i8*]* @"System.Console Virtual Table", i64 0, i64 2), i8*** %.r2
    ret void
}



%"System.Convert" = type {
    %"System.Object"
}
@"System.Convert.s_rgchBase64EncodingDefault" = global i16* undef
@"System.Convert.s_rgchBase64EncodingRFC4648" = global i16* undef
@"System.Convert.s_rgchBase64Encoding" = global i16* undef
@"System.Convert.s_rgbBase64Decode" = global i8* undef

@"System.Convert Virtual Table" = linkonce_odr unnamed_addr constant [6 x i8*] [
    i8* null,
    i8* bitcast ({ i8*, i8*, i8* }* @"System.Convert Info" to i8*),
    i8* bitcast (%"System.String"* (%"System.Object"*)* @"System.String System.Object.ToString()" to i8*),
    i8* bitcast (i1 (%"System.Object"*, %"System.Object"*)* @"Boolean System.Object.Equals(System.Object)" to i8*),
    i8* bitcast (i32 (%"System.Object"*)* @"Int32 System.Object.GetHashCode()" to i8*),
    i8* bitcast (void (%"System.Object"*)* @"Void System.Object.Finalize()" to i8*)
]

; RTTI class
@"System.Convert String Name" = linkonce_odr constant [17 x i8] c"14System.Convert\00"
@"System.Convert Info" = linkonce_odr unnamed_addr constant { i8*, i8*, i8* } {
    i8* bitcast (i8** getelementptr inbounds (i8** @_ZTVN10__cxxabiv120__si_class_type_infoE, i32 2) to i8*),
    i8* getelementptr inbounds ([17 x i8]* @"System.Convert String Name", i32 0, i32 0),
    i8* bitcast ({ i8*, i8* }* @"System.Object Info" to i8*)
}
; RTTI pointer
@"System.Convert Pointer String Name" = linkonce_odr constant [18 x i8] c"P14System.Convert\00"
@"System.Convert Pointer Info" = linkonce_odr unnamed_addr constant { i8*, i8*, i32, i8* } {
    i8* bitcast (i8** getelementptr inbounds (i8** @_ZTVN10__cxxabiv119__pointer_type_infoE, i32 2) to i8*),
    i8* getelementptr inbounds ([18 x i8]* @"System.Convert Pointer String Name", i32 0, i32 0),
    i32 0,
    i8* bitcast ({ i8*, i8*, i8* }* @"System.Convert Info" to i8*)
}

; Init Object method
define void @"Void System.Convert..init()"(%"System.Convert"* %arg.this) #29 {
    %this = alloca %"System.Convert"*, align 4
    store %"System.Convert"* %arg.this, %"System.Convert"** %this, align 4
    %.r1 = load %"System.Convert"** %this, align 4
    ; set virtual table
    %.r2 = bitcast %"System.Convert"* %.r1 to i8***
    store i8** getelementptr inbounds ([6 x i8*]* @"System.Convert Virtual Table", i64 0, i64 2), i8*** %.r2
    ret void
}



%"System.CLSCompliantAttribute" = type {
    %"System.Attribute",
    i1
}

@"System.CLSCompliantAttribute Virtual Table" = linkonce_odr unnamed_addr constant [6 x i8*] [
    i8* null,
    i8* bitcast ({ i8*, i8*, i8* }* @"System.CLSCompliantAttribute Info" to i8*),
    i8* bitcast (%"System.String"* (%"System.Object"*)* @"System.String System.Object.ToString()" to i8*),
    i8* bitcast (i1 (%"System.Object"*, %"System.Object"*)* @"Boolean System.Object.Equals(System.Object)" to i8*),
    i8* bitcast (i32 (%"System.Object"*)* @"Int32 System.Object.GetHashCode()" to i8*),
    i8* bitcast (void (%"System.Object"*)* @"Void System.Object.Finalize()" to i8*)
]

; RTTI class
@"System.CLSCompliantAttribute String Name" = linkonce_odr constant [31 x i8] c"28System.CLSCompliantAttribute\00"
@"System.CLSCompliantAttribute Info" = linkonce_odr unnamed_addr constant { i8*, i8*, i8* } {
    i8* bitcast (i8** getelementptr inbounds (i8** @_ZTVN10__cxxabiv120__si_class_type_infoE, i32 2) to i8*),
    i8* getelementptr inbounds ([31 x i8]* @"System.CLSCompliantAttribute String Name", i32 0, i32 0),
    i8* bitcast ({ i8*, i8*, i8* }* @"System.Attribute Info" to i8*)
}
; RTTI pointer
@"System.CLSCompliantAttribute Pointer String Name" = linkonce_odr constant [32 x i8] c"P28System.CLSCompliantAttribute\00"
@"System.CLSCompliantAttribute Pointer Info" = linkonce_odr unnamed_addr constant { i8*, i8*, i32, i8* } {
    i8* bitcast (i8** getelementptr inbounds (i8** @_ZTVN10__cxxabiv119__pointer_type_infoE, i32 2) to i8*),
    i8* getelementptr inbounds ([32 x i8]* @"System.CLSCompliantAttribute Pointer String Name", i32 0, i32 0),
    i32 0,
    i8* bitcast ({ i8*, i8*, i8* }* @"System.CLSCompliantAttribute Info" to i8*)
}

; Init Object method
define void @"Void System.CLSCompliantAttribute..init()"(%"System.CLSCompliantAttribute"* %arg.this) #30 {
    %this = alloca %"System.CLSCompliantAttribute"*, align 4
    store %"System.CLSCompliantAttribute"* %arg.this, %"System.CLSCompliantAttribute"** %this, align 4
    %.r1 = load %"System.CLSCompliantAttribute"** %this, align 4
    ; set virtual table
    %.r2 = bitcast %"System.CLSCompliantAttribute"* %.r1 to i8***
    store i8** getelementptr inbounds ([6 x i8*]* @"System.CLSCompliantAttribute Virtual Table", i64 0, i64 2), i8*** %.r2
    ret void
}



%"System.DateTimeKind" = type {
    %"System.Enum",
    i32
}

@"System.DateTimeKind Virtual Table" = linkonce_odr unnamed_addr constant [6 x i8*] [
    i8* null,
    i8* bitcast ({ i8*, i8*, i8* }* @"System.DateTimeKind Info" to i8*),
    i8* bitcast (%"System.String"* (%"System.Enum"*)* @"System.String System.Enum.ToString()" to i8*),
    i8* bitcast (i1 (%"System.ValueType"*, %"System.Object"*)* @"Boolean System.ValueType.Equals(System.Object)" to i8*),
    i8* bitcast (i32 (%"System.ValueType"*)* @"Int32 System.ValueType.GetHashCode()" to i8*),
    i8* bitcast (void (%"System.Object"*)* @"Void System.Object.Finalize()" to i8*)
]

; RTTI class
@"System.DateTimeKind String Name" = linkonce_odr constant [22 x i8] c"19System.DateTimeKind\00"
@"System.DateTimeKind Info" = linkonce_odr unnamed_addr constant { i8*, i8*, i8* } {
    i8* bitcast (i8** getelementptr inbounds (i8** @_ZTVN10__cxxabiv120__si_class_type_infoE, i32 2) to i8*),
    i8* getelementptr inbounds ([22 x i8]* @"System.DateTimeKind String Name", i32 0, i32 0),
    i8* bitcast ({ i8*, i8*, i8* }* @"System.Enum Info" to i8*)
}
; RTTI pointer
@"System.DateTimeKind Pointer String Name" = linkonce_odr constant [23 x i8] c"P19System.DateTimeKind\00"
@"System.DateTimeKind Pointer Info" = linkonce_odr unnamed_addr constant { i8*, i8*, i32, i8* } {
    i8* bitcast (i8** getelementptr inbounds (i8** @_ZTVN10__cxxabiv119__pointer_type_infoE, i32 2) to i8*),
    i8* getelementptr inbounds ([23 x i8]* @"System.DateTimeKind Pointer String Name", i32 0, i32 0),
    i32 0,
    i8* bitcast ({ i8*, i8*, i8* }* @"System.DateTimeKind Info" to i8*)
}

; Init Object method
define void @"Void System.DateTimeKind..init()"(%"System.DateTimeKind"* %arg.this) #31 {
    %this = alloca %"System.DateTimeKind"*, align 4
    store %"System.DateTimeKind"* %arg.this, %"System.DateTimeKind"** %this, align 4
    %.r1 = load %"System.DateTimeKind"** %this, align 4
    ; set virtual table
    %.r2 = bitcast %"System.DateTimeKind"* %.r1 to i8***
    store i8** getelementptr inbounds ([6 x i8*]* @"System.DateTimeKind Virtual Table", i64 0, i64 2), i8*** %.r2
    ret void
}

; Box method
define %"System.DateTimeKind"* @"System.DateTimeKind System.DateTimeKind..box(System.DateTimeKind)"(i32 %arg.value) #32 {
    %value = alloca i32, align 4
    store i32 %arg.value, i32* %value, align 4
    %.r1 = load i32* %value, align 4
    ; Boxing
    ; New obj
    %.r2 = call i8* @_Znwj(i32 4)
    call void @llvm.memset.p0i8.i32(i8* %.r2, i8 0, i32 4, i32 4, i1 false)
    %.r3 = bitcast i8* %.r2 to %"System.DateTimeKind"*
    ; call Init Object method
    call void @"Void System.DateTimeKind..init()"(%"System.DateTimeKind"* %.r3)
    ; end of new obj
    ; Copy data
    %.r4 = getelementptr inbounds %"System.DateTimeKind"* %.r3, i32 0, i32 1
    store i32 %.r1, i32* %.r4
    ; End of Copy data
    ret %"System.DateTimeKind"* %.r3
}

; Unbox method
define i32 @"System.DateTimeKind System.DateTimeKind..unbox()"(%"System.DateTimeKind"* %arg.this) #33 {
    %this = alloca %"System.DateTimeKind"*, align 4
    store %"System.DateTimeKind"* %arg.this, %"System.DateTimeKind"** %this, align 4
    %.r1 = load %"System.DateTimeKind"** %this, align 4
    ; Unboxing
    ; Copy data
    %.r2 = getelementptr inbounds %"System.DateTimeKind"* %.r1, i32 0, i32 1
    %.r3 = load i32* %.r2, align 4
    ; End of Copy data
    ret i32 %.r3
}



%"System.DateTime" = type {
    %"System.ValueType",
    i64
}
@"System.DateTime.MinValue" = global %"System.DateTime" zeroinitializer, align 4
@"System.DateTime.MaxValue" = global %"System.DateTime" zeroinitializer, align 4
@"System.DateTime.ticksAtOrigin" = global i64 undef

@"System.DateTime Virtual Table" = linkonce_odr unnamed_addr constant [6 x i8*] [
    i8* null,
    i8* bitcast ({ i8*, i8*, i8* }* @"System.DateTime Info" to i8*),
    i8* bitcast (%"System.String"* (%"System.DateTime"*)* @"System.String System.DateTime.ToString()" to i8*),
    i8* bitcast (i1 (%"System.DateTime"*, %"System.Object"*)* @"Boolean System.DateTime.Equals(System.Object)" to i8*),
    i8* bitcast (i32 (%"System.ValueType"*)* @"Int32 System.ValueType.GetHashCode()" to i8*),
    i8* bitcast (void (%"System.Object"*)* @"Void System.Object.Finalize()" to i8*)
]

; RTTI class
@"System.DateTime String Name" = linkonce_odr constant [18 x i8] c"15System.DateTime\00"
@"System.DateTime Info" = linkonce_odr unnamed_addr constant { i8*, i8*, i8* } {
    i8* bitcast (i8** getelementptr inbounds (i8** @_ZTVN10__cxxabiv120__si_class_type_infoE, i32 2) to i8*),
    i8* getelementptr inbounds ([18 x i8]* @"System.DateTime String Name", i32 0, i32 0),
    i8* bitcast ({ i8*, i8*, i8* }* @"System.ValueType Info" to i8*)
}
; RTTI pointer
@"System.DateTime Pointer String Name" = linkonce_odr constant [19 x i8] c"P15System.DateTime\00"
@"System.DateTime Pointer Info" = linkonce_odr unnamed_addr constant { i8*, i8*, i32, i8* } {
    i8* bitcast (i8** getelementptr inbounds (i8** @_ZTVN10__cxxabiv119__pointer_type_infoE, i32 2) to i8*),
    i8* getelementptr inbounds ([19 x i8]* @"System.DateTime Pointer String Name", i32 0, i32 0),
    i32 0,
    i8* bitcast ({ i8*, i8*, i8* }* @"System.DateTime Info" to i8*)
}

; Init Object method
define void @"Void System.DateTime..init()"(%"System.DateTime"* %arg.this) #34 {
    %this = alloca %"System.DateTime"*, align 4
    store %"System.DateTime"* %arg.this, %"System.DateTime"** %this, align 4
    %.r1 = load %"System.DateTime"** %this, align 4
    ; set virtual table
    %.r2 = bitcast %"System.DateTime"* %.r1 to i8***
    store i8** getelementptr inbounds ([6 x i8*]* @"System.DateTime Virtual Table", i64 0, i64 2), i8*** %.r2
    ret void
}

; Box method
define %"System.DateTime"* @"System.DateTime System.DateTime..box(System.DateTime)"(%"System.DateTime"* byval align 4 %value) #35 {
    ; Boxing
    ; New obj
    %.r1 = call i8* @_Znwj(i32 12)
    call void @llvm.memset.p0i8.i32(i8* %.r1, i8 0, i32 12, i32 4, i1 false)
    %.r2 = bitcast i8* %.r1 to %"System.DateTime"*
    ; end of new obj
    ; Copy data
    %.r3 = bitcast %"System.DateTime"* %.r2 to i8*
    %.r4 = bitcast %"System.DateTime"* %value to i8*
    call void @llvm.memcpy.p0i8.p0i8.i32(i8* %.r3, i8* %.r4, i32 12, i32 4, i1 false)
    ; call Init Object method
    call void @"Void System.DateTime..init()"(%"System.DateTime"* %.r2)
    ; End of Copy data
    ret %"System.DateTime"* %.r2
}

; Unbox method
define void @"System.DateTime System.DateTime..unbox()"(%"System.DateTime"* noalias sret %agg.result, %"System.DateTime"* %arg.this) #36 {
    %this = alloca %"System.DateTime"*, align 4
    store %"System.DateTime"* %arg.this, %"System.DateTime"** %this, align 4
    %.r1 = load %"System.DateTime"** %this, align 4
    ; Unboxing
    ; Copy data
    %.r2 = bitcast %"System.DateTime"* %agg.result to i8*
    %.r3 = bitcast %"System.DateTime"* %.r1 to i8*
    call void @llvm.memcpy.p0i8.p0i8.i32(i8* %.r2, i8* %.r3, i32 12, i32 4, i1 false)
    ; End of Copy data
    ret  void
}



%"System.DayOfWeek" = type {
    %"System.Enum",
    i32
}

@"System.DayOfWeek Virtual Table" = linkonce_odr unnamed_addr constant [6 x i8*] [
    i8* null,
    i8* bitcast ({ i8*, i8*, i8* }* @"System.DayOfWeek Info" to i8*),
    i8* bitcast (%"System.String"* (%"System.Enum"*)* @"System.String System.Enum.ToString()" to i8*),
    i8* bitcast (i1 (%"System.ValueType"*, %"System.Object"*)* @"Boolean System.ValueType.Equals(System.Object)" to i8*),
    i8* bitcast (i32 (%"System.ValueType"*)* @"Int32 System.ValueType.GetHashCode()" to i8*),
    i8* bitcast (void (%"System.Object"*)* @"Void System.Object.Finalize()" to i8*)
]

; RTTI class
@"System.DayOfWeek String Name" = linkonce_odr constant [19 x i8] c"16System.DayOfWeek\00"
@"System.DayOfWeek Info" = linkonce_odr unnamed_addr constant { i8*, i8*, i8* } {
    i8* bitcast (i8** getelementptr inbounds (i8** @_ZTVN10__cxxabiv120__si_class_type_infoE, i32 2) to i8*),
    i8* getelementptr inbounds ([19 x i8]* @"System.DayOfWeek String Name", i32 0, i32 0),
    i8* bitcast ({ i8*, i8*, i8* }* @"System.Enum Info" to i8*)
}
; RTTI pointer
@"System.DayOfWeek Pointer String Name" = linkonce_odr constant [20 x i8] c"P16System.DayOfWeek\00"
@"System.DayOfWeek Pointer Info" = linkonce_odr unnamed_addr constant { i8*, i8*, i32, i8* } {
    i8* bitcast (i8** getelementptr inbounds (i8** @_ZTVN10__cxxabiv119__pointer_type_infoE, i32 2) to i8*),
    i8* getelementptr inbounds ([20 x i8]* @"System.DayOfWeek Pointer String Name", i32 0, i32 0),
    i32 0,
    i8* bitcast ({ i8*, i8*, i8* }* @"System.DayOfWeek Info" to i8*)
}

; Init Object method
define void @"Void System.DayOfWeek..init()"(%"System.DayOfWeek"* %arg.this) #37 {
    %this = alloca %"System.DayOfWeek"*, align 4
    store %"System.DayOfWeek"* %arg.this, %"System.DayOfWeek"** %this, align 4
    %.r1 = load %"System.DayOfWeek"** %this, align 4
    ; set virtual table
    %.r2 = bitcast %"System.DayOfWeek"* %.r1 to i8***
    store i8** getelementptr inbounds ([6 x i8*]* @"System.DayOfWeek Virtual Table", i64 0, i64 2), i8*** %.r2
    ret void
}

; Box method
define %"System.DayOfWeek"* @"System.DayOfWeek System.DayOfWeek..box(System.DayOfWeek)"(i32 %arg.value) #38 {
    %value = alloca i32, align 4
    store i32 %arg.value, i32* %value, align 4
    %.r1 = load i32* %value, align 4
    ; Boxing
    ; New obj
    %.r2 = call i8* @_Znwj(i32 4)
    call void @llvm.memset.p0i8.i32(i8* %.r2, i8 0, i32 4, i32 4, i1 false)
    %.r3 = bitcast i8* %.r2 to %"System.DayOfWeek"*
    ; call Init Object method
    call void @"Void System.DayOfWeek..init()"(%"System.DayOfWeek"* %.r3)
    ; end of new obj
    ; Copy data
    %.r4 = getelementptr inbounds %"System.DayOfWeek"* %.r3, i32 0, i32 1
    store i32 %.r1, i32* %.r4
    ; End of Copy data
    ret %"System.DayOfWeek"* %.r3
}

; Unbox method
define i32 @"System.DayOfWeek System.DayOfWeek..unbox()"(%"System.DayOfWeek"* %arg.this) #39 {
    %this = alloca %"System.DayOfWeek"*, align 4
    store %"System.DayOfWeek"* %arg.this, %"System.DayOfWeek"** %this, align 4
    %.r1 = load %"System.DayOfWeek"** %this, align 4
    ; Unboxing
    ; Copy data
    %.r2 = getelementptr inbounds %"System.DayOfWeek"* %.r1, i32 0, i32 1
    %.r3 = load i32* %.r2, align 4
    ; End of Copy data
    ret i32 %.r3
}



%"System.DBNull" = type {
    %"System.Object"
}
@"System.DBNull.Value" = global %"System.DBNull"* undef

@"System.DBNull Virtual Table" = linkonce_odr unnamed_addr constant [6 x i8*] [
    i8* null,
    i8* bitcast ({ i8*, i8*, i8* }* @"System.DBNull Info" to i8*),
    i8* bitcast (%"System.String"* (%"System.Object"*)* @"System.String System.Object.ToString()" to i8*),
    i8* bitcast (i1 (%"System.Object"*, %"System.Object"*)* @"Boolean System.Object.Equals(System.Object)" to i8*),
    i8* bitcast (i32 (%"System.Object"*)* @"Int32 System.Object.GetHashCode()" to i8*),
    i8* bitcast (void (%"System.Object"*)* @"Void System.Object.Finalize()" to i8*)
]

; RTTI class
@"System.DBNull String Name" = linkonce_odr constant [16 x i8] c"13System.DBNull\00"
@"System.DBNull Info" = linkonce_odr unnamed_addr constant { i8*, i8*, i8* } {
    i8* bitcast (i8** getelementptr inbounds (i8** @_ZTVN10__cxxabiv120__si_class_type_infoE, i32 2) to i8*),
    i8* getelementptr inbounds ([16 x i8]* @"System.DBNull String Name", i32 0, i32 0),
    i8* bitcast ({ i8*, i8* }* @"System.Object Info" to i8*)
}
; RTTI pointer
@"System.DBNull Pointer String Name" = linkonce_odr constant [17 x i8] c"P13System.DBNull\00"
@"System.DBNull Pointer Info" = linkonce_odr unnamed_addr constant { i8*, i8*, i32, i8* } {
    i8* bitcast (i8** getelementptr inbounds (i8** @_ZTVN10__cxxabiv119__pointer_type_infoE, i32 2) to i8*),
    i8* getelementptr inbounds ([17 x i8]* @"System.DBNull Pointer String Name", i32 0, i32 0),
    i32 0,
    i8* bitcast ({ i8*, i8*, i8* }* @"System.DBNull Info" to i8*)
}

; Init Object method
define void @"Void System.DBNull..init()"(%"System.DBNull"* %arg.this) #40 {
    %this = alloca %"System.DBNull"*, align 4
    store %"System.DBNull"* %arg.this, %"System.DBNull"** %this, align 4
    %.r1 = load %"System.DBNull"** %this, align 4
    ; set virtual table
    %.r2 = bitcast %"System.DBNull"* %.r1 to i8***
    store i8** getelementptr inbounds ([6 x i8*]* @"System.DBNull Virtual Table", i64 0, i64 2), i8*** %.r2
    ret void
}



%"System.Decimal" = type {
    %"System.ValueType",
    i32,
    i32,
    i32,
    i32
}

@"System.Decimal Virtual Table" = linkonce_odr unnamed_addr constant [6 x i8*] [
    i8* null,
    i8* bitcast ({ i8*, i8*, i8* }* @"System.Decimal Info" to i8*),
    i8* bitcast (%"System.String"* (%"System.ValueType"*)* @"System.String System.ValueType.ToString()" to i8*),
    i8* bitcast (i1 (%"System.ValueType"*, %"System.Object"*)* @"Boolean System.ValueType.Equals(System.Object)" to i8*),
    i8* bitcast (i32 (%"System.ValueType"*)* @"Int32 System.ValueType.GetHashCode()" to i8*),
    i8* bitcast (void (%"System.Object"*)* @"Void System.Object.Finalize()" to i8*)
]

; RTTI class
@"System.Decimal String Name" = linkonce_odr constant [17 x i8] c"14System.Decimal\00"
@"System.Decimal Info" = linkonce_odr unnamed_addr constant { i8*, i8*, i8* } {
    i8* bitcast (i8** getelementptr inbounds (i8** @_ZTVN10__cxxabiv120__si_class_type_infoE, i32 2) to i8*),
    i8* getelementptr inbounds ([17 x i8]* @"System.Decimal String Name", i32 0, i32 0),
    i8* bitcast ({ i8*, i8*, i8* }* @"System.ValueType Info" to i8*)
}
; RTTI pointer
@"System.Decimal Pointer String Name" = linkonce_odr constant [18 x i8] c"P14System.Decimal\00"
@"System.Decimal Pointer Info" = linkonce_odr unnamed_addr constant { i8*, i8*, i32, i8* } {
    i8* bitcast (i8** getelementptr inbounds (i8** @_ZTVN10__cxxabiv119__pointer_type_infoE, i32 2) to i8*),
    i8* getelementptr inbounds ([18 x i8]* @"System.Decimal Pointer String Name", i32 0, i32 0),
    i32 0,
    i8* bitcast ({ i8*, i8*, i8* }* @"System.Decimal Info" to i8*)
}

; Init Object method
define void @"Void System.Decimal..init()"(%"System.Decimal"* %arg.this) #41 {
    %this = alloca %"System.Decimal"*, align 4
    store %"System.Decimal"* %arg.this, %"System.Decimal"** %this, align 4
    %.r1 = load %"System.Decimal"** %this, align 4
    ; set virtual table
    %.r2 = bitcast %"System.Decimal"* %.r1 to i8***
    store i8** getelementptr inbounds ([6 x i8*]* @"System.Decimal Virtual Table", i64 0, i64 2), i8*** %.r2
    ret void
}

; Box method
define %"System.Decimal"* @"System.Decimal System.Decimal..box(System.Decimal)"(%"System.Decimal"* byval align 4 %value) #42 {
    ; Boxing
    ; New obj
    %.r1 = call i8* @_Znwj(i32 20)
    call void @llvm.memset.p0i8.i32(i8* %.r1, i8 0, i32 20, i32 4, i1 false)
    %.r2 = bitcast i8* %.r1 to %"System.Decimal"*
    ; end of new obj
    ; Copy data
    %.r3 = bitcast %"System.Decimal"* %.r2 to i8*
    %.r4 = bitcast %"System.Decimal"* %value to i8*
    call void @llvm.memcpy.p0i8.p0i8.i32(i8* %.r3, i8* %.r4, i32 20, i32 4, i1 false)
    ; call Init Object method
    call void @"Void System.Decimal..init()"(%"System.Decimal"* %.r2)
    ; End of Copy data
    ret %"System.Decimal"* %.r2
}

; Unbox method
define void @"System.Decimal System.Decimal..unbox()"(%"System.Decimal"* noalias sret %agg.result, %"System.Decimal"* %arg.this) #43 {
    %this = alloca %"System.Decimal"*, align 4
    store %"System.Decimal"* %arg.this, %"System.Decimal"** %this, align 4
    %.r1 = load %"System.Decimal"** %this, align 4
    ; Unboxing
    ; Copy data
    %.r2 = bitcast %"System.Decimal"* %agg.result to i8*
    %.r3 = bitcast %"System.Decimal"* %.r1 to i8*
    call void @llvm.memcpy.p0i8.p0i8.i32(i8* %.r2, i8* %.r3, i32 20, i32 4, i1 false)
    ; End of Copy data
    ret  void
}



%"System.Double" = type {
    %"System.ValueType",
    double
}

@"System.Double Virtual Table" = linkonce_odr unnamed_addr constant [6 x i8*] [
    i8* null,
    i8* bitcast ({ i8*, i8*, i8* }* @"System.Double Info" to i8*),
    i8* bitcast (%"System.String"* (%"System.Double"*)* @"System.String System.Double.ToString()" to i8*),
    i8* bitcast (i1 (%"System.ValueType"*, %"System.Object"*)* @"Boolean System.ValueType.Equals(System.Object)" to i8*),
    i8* bitcast (i32 (%"System.ValueType"*)* @"Int32 System.ValueType.GetHashCode()" to i8*),
    i8* bitcast (void (%"System.Object"*)* @"Void System.Object.Finalize()" to i8*)
]

; RTTI class
@"System.Double String Name" = linkonce_odr constant [16 x i8] c"13System.Double\00"
@"System.Double Info" = linkonce_odr unnamed_addr constant { i8*, i8*, i8* } {
    i8* bitcast (i8** getelementptr inbounds (i8** @_ZTVN10__cxxabiv120__si_class_type_infoE, i32 2) to i8*),
    i8* getelementptr inbounds ([16 x i8]* @"System.Double String Name", i32 0, i32 0),
    i8* bitcast ({ i8*, i8*, i8* }* @"System.ValueType Info" to i8*)
}
; RTTI pointer
@"System.Double Pointer String Name" = linkonce_odr constant [17 x i8] c"P13System.Double\00"
@"System.Double Pointer Info" = linkonce_odr unnamed_addr constant { i8*, i8*, i32, i8* } {
    i8* bitcast (i8** getelementptr inbounds (i8** @_ZTVN10__cxxabiv119__pointer_type_infoE, i32 2) to i8*),
    i8* getelementptr inbounds ([17 x i8]* @"System.Double Pointer String Name", i32 0, i32 0),
    i32 0,
    i8* bitcast ({ i8*, i8*, i8* }* @"System.Double Info" to i8*)
}

; Init Object method
define void @"Void System.Double..init()"(%"System.Double"* %arg.this) #44 {
    %this = alloca %"System.Double"*, align 4
    store %"System.Double"* %arg.this, %"System.Double"** %this, align 4
    %.r1 = load %"System.Double"** %this, align 4
    ; set virtual table
    %.r2 = bitcast %"System.Double"* %.r1 to i8***
    store i8** getelementptr inbounds ([6 x i8*]* @"System.Double Virtual Table", i64 0, i64 2), i8*** %.r2
    ret void
}

; Box method
define %"System.Double"* @"System.Double System.Double..box(Double)"(double %arg.value) #45 {
    %value = alloca double, align 4
    store double %arg.value, double* %value, align 4
    %.r1 = load double* %value, align 4
    ; Boxing
    ; New obj
    %.r2 = call i8* @_Znwj(i32 12)
    call void @llvm.memset.p0i8.i32(i8* %.r2, i8 0, i32 12, i32 4, i1 false)
    %.r3 = bitcast i8* %.r2 to %"System.Double"*
    ; call Init Object method
    call void @"Void System.Double..init()"(%"System.Double"* %.r3)
    ; end of new obj
    ; Copy data
    %.r4 = getelementptr inbounds %"System.Double"* %.r3, i32 0, i32 1
    store double %.r1, double* %.r4
    ; End of Copy data
    ret %"System.Double"* %.r3
}

; Unbox method
define double @"Double System.Double..unbox()"(%"System.Double"* %arg.this) #46 {
    %this = alloca %"System.Double"*, align 4
    store %"System.Double"* %arg.this, %"System.Double"** %this, align 4
    %.r1 = load %"System.Double"** %this, align 4
    ; Unboxing
    ; Copy data
    %.r2 = getelementptr inbounds %"System.Double"* %.r1, i32 0, i32 1
    %.r3 = load double* %.r2, align 4
    ; End of Copy data
    ret double %.r3
}



%"System.FlagsAttribute" = type {
    %"System.Attribute"
}

@"System.FlagsAttribute Virtual Table" = linkonce_odr unnamed_addr constant [6 x i8*] [
    i8* null,
    i8* bitcast ({ i8*, i8*, i8* }* @"System.FlagsAttribute Info" to i8*),
    i8* bitcast (%"System.String"* (%"System.Object"*)* @"System.String System.Object.ToString()" to i8*),
    i8* bitcast (i1 (%"System.Object"*, %"System.Object"*)* @"Boolean System.Object.Equals(System.Object)" to i8*),
    i8* bitcast (i32 (%"System.Object"*)* @"Int32 System.Object.GetHashCode()" to i8*),
    i8* bitcast (void (%"System.Object"*)* @"Void System.Object.Finalize()" to i8*)
]

; RTTI class
@"System.FlagsAttribute String Name" = linkonce_odr constant [24 x i8] c"21System.FlagsAttribute\00"
@"System.FlagsAttribute Info" = linkonce_odr unnamed_addr constant { i8*, i8*, i8* } {
    i8* bitcast (i8** getelementptr inbounds (i8** @_ZTVN10__cxxabiv120__si_class_type_infoE, i32 2) to i8*),
    i8* getelementptr inbounds ([24 x i8]* @"System.FlagsAttribute String Name", i32 0, i32 0),
    i8* bitcast ({ i8*, i8*, i8* }* @"System.Attribute Info" to i8*)
}
; RTTI pointer
@"System.FlagsAttribute Pointer String Name" = linkonce_odr constant [25 x i8] c"P21System.FlagsAttribute\00"
@"System.FlagsAttribute Pointer Info" = linkonce_odr unnamed_addr constant { i8*, i8*, i32, i8* } {
    i8* bitcast (i8** getelementptr inbounds (i8** @_ZTVN10__cxxabiv119__pointer_type_infoE, i32 2) to i8*),
    i8* getelementptr inbounds ([25 x i8]* @"System.FlagsAttribute Pointer String Name", i32 0, i32 0),
    i32 0,
    i8* bitcast ({ i8*, i8*, i8* }* @"System.FlagsAttribute Info" to i8*)
}

; Init Object method
define void @"Void System.FlagsAttribute..init()"(%"System.FlagsAttribute"* %arg.this) #47 {
    %this = alloca %"System.FlagsAttribute"*, align 4
    store %"System.FlagsAttribute"* %arg.this, %"System.FlagsAttribute"** %this, align 4
    %.r1 = load %"System.FlagsAttribute"** %this, align 4
    ; set virtual table
    %.r2 = bitcast %"System.FlagsAttribute"* %.r1 to i8***
    store i8** getelementptr inbounds ([6 x i8*]* @"System.FlagsAttribute Virtual Table", i64 0, i64 2), i8*** %.r2
    ret void
}



%"System.GC" = type {
    %"System.Object"
}

@"System.GC Virtual Table" = linkonce_odr unnamed_addr constant [6 x i8*] [
    i8* null,
    i8* bitcast ({ i8*, i8*, i8* }* @"System.GC Info" to i8*),
    i8* bitcast (%"System.String"* (%"System.Object"*)* @"System.String System.Object.ToString()" to i8*),
    i8* bitcast (i1 (%"System.Object"*, %"System.Object"*)* @"Boolean System.Object.Equals(System.Object)" to i8*),
    i8* bitcast (i32 (%"System.Object"*)* @"Int32 System.Object.GetHashCode()" to i8*),
    i8* bitcast (void (%"System.Object"*)* @"Void System.Object.Finalize()" to i8*)
]

; RTTI class
@"System.GC String Name" = linkonce_odr constant [11 x i8] c"9System.GC\00"
@"System.GC Info" = linkonce_odr unnamed_addr constant { i8*, i8*, i8* } {
    i8* bitcast (i8** getelementptr inbounds (i8** @_ZTVN10__cxxabiv120__si_class_type_infoE, i32 2) to i8*),
    i8* getelementptr inbounds ([11 x i8]* @"System.GC String Name", i32 0, i32 0),
    i8* bitcast ({ i8*, i8* }* @"System.Object Info" to i8*)
}
; RTTI pointer
@"System.GC Pointer String Name" = linkonce_odr constant [12 x i8] c"P9System.GC\00"
@"System.GC Pointer Info" = linkonce_odr unnamed_addr constant { i8*, i8*, i32, i8* } {
    i8* bitcast (i8** getelementptr inbounds (i8** @_ZTVN10__cxxabiv119__pointer_type_infoE, i32 2) to i8*),
    i8* getelementptr inbounds ([12 x i8]* @"System.GC Pointer String Name", i32 0, i32 0),
    i32 0,
    i8* bitcast ({ i8*, i8*, i8* }* @"System.GC Info" to i8*)
}

; Init Object method
define void @"Void System.GC..init()"(%"System.GC"* %arg.this) #48 {
    %this = alloca %"System.GC"*, align 4
    store %"System.GC"* %arg.this, %"System.GC"** %this, align 4
    %.r1 = load %"System.GC"** %this, align 4
    ; set virtual table
    %.r2 = bitcast %"System.GC"* %.r1 to i8***
    store i8** getelementptr inbounds ([6 x i8*]* @"System.GC Virtual Table", i64 0, i64 2), i8*** %.r2
    ret void
}



%"System.Guid" = type {
    %"System.ValueType",
    i32*
}
@"System.Guid.m_rand" = global %"System.Random"* undef
@"System.Guid.Empty" = global %"System.Guid" zeroinitializer, align 4

@"System.Guid Virtual Table" = linkonce_odr unnamed_addr constant [6 x i8*] [
    i8* null,
    i8* bitcast ({ i8*, i8*, i8* }* @"System.Guid Info" to i8*),
    i8* bitcast (%"System.String"* (%"System.Guid"*)* @"System.String System.Guid.ToString()" to i8*),
    i8* bitcast (i1 (%"System.Guid"*, %"System.Object"*)* @"Boolean System.Guid.Equals(System.Object)" to i8*),
    i8* bitcast (i32 (%"System.Guid"*)* @"Int32 System.Guid.GetHashCode()" to i8*),
    i8* bitcast (void (%"System.Object"*)* @"Void System.Object.Finalize()" to i8*)
]

; RTTI class
@"System.Guid String Name" = linkonce_odr constant [14 x i8] c"11System.Guid\00"
@"System.Guid Info" = linkonce_odr unnamed_addr constant { i8*, i8*, i8* } {
    i8* bitcast (i8** getelementptr inbounds (i8** @_ZTVN10__cxxabiv120__si_class_type_infoE, i32 2) to i8*),
    i8* getelementptr inbounds ([14 x i8]* @"System.Guid String Name", i32 0, i32 0),
    i8* bitcast ({ i8*, i8*, i8* }* @"System.ValueType Info" to i8*)
}
; RTTI pointer
@"System.Guid Pointer String Name" = linkonce_odr constant [15 x i8] c"P11System.Guid\00"
@"System.Guid Pointer Info" = linkonce_odr unnamed_addr constant { i8*, i8*, i32, i8* } {
    i8* bitcast (i8** getelementptr inbounds (i8** @_ZTVN10__cxxabiv119__pointer_type_infoE, i32 2) to i8*),
    i8* getelementptr inbounds ([15 x i8]* @"System.Guid Pointer String Name", i32 0, i32 0),
    i32 0,
    i8* bitcast ({ i8*, i8*, i8* }* @"System.Guid Info" to i8*)
}

; Init Object method
define void @"Void System.Guid..init()"(%"System.Guid"* %arg.this) #49 {
    %this = alloca %"System.Guid"*, align 4
    store %"System.Guid"* %arg.this, %"System.Guid"** %this, align 4
    %.r1 = load %"System.Guid"** %this, align 4
    ; set virtual table
    %.r2 = bitcast %"System.Guid"* %.r1 to i8***
    store i8** getelementptr inbounds ([6 x i8*]* @"System.Guid Virtual Table", i64 0, i64 2), i8*** %.r2
    ret void
}

; Box method
define %"System.Guid"* @"System.Guid System.Guid..box(System.Guid)"(%"System.Guid"* byval align 4 %value) #50 {
    ; Boxing
    ; New obj
    %.r1 = call i8* @_Znwj(i32 8)
    call void @llvm.memset.p0i8.i32(i8* %.r1, i8 0, i32 8, i32 4, i1 false)
    %.r2 = bitcast i8* %.r1 to %"System.Guid"*
    ; end of new obj
    ; Copy data
    %.r3 = bitcast %"System.Guid"* %.r2 to i8*
    %.r4 = bitcast %"System.Guid"* %value to i8*
    call void @llvm.memcpy.p0i8.p0i8.i32(i8* %.r3, i8* %.r4, i32 8, i32 4, i1 false)
    ; call Init Object method
    call void @"Void System.Guid..init()"(%"System.Guid"* %.r2)
    ; End of Copy data
    ret %"System.Guid"* %.r2
}

; Unbox method
define void @"System.Guid System.Guid..unbox()"(%"System.Guid"* noalias sret %agg.result, %"System.Guid"* %arg.this) #51 {
    %this = alloca %"System.Guid"*, align 4
    store %"System.Guid"* %arg.this, %"System.Guid"** %this, align 4
    %.r1 = load %"System.Guid"** %this, align 4
    ; Unboxing
    ; Copy data
    %.r2 = bitcast %"System.Guid"* %agg.result to i8*
    %.r3 = bitcast %"System.Guid"* %.r1 to i8*
    call void @llvm.memcpy.p0i8.p0i8.i32(i8* %.r2, i8* %.r3, i32 8, i32 4, i1 false)
    ; End of Copy data
    ret  void
}



%"System.IAsyncResult" = type {
    i32 (...)**
    
}

; RTTI class
@"System.IAsyncResult String Name" = linkonce_odr constant [22 x i8] c"19System.IAsyncResult\00"
@"System.IAsyncResult Info" = linkonce_odr unnamed_addr constant { i8*, i8* } {
    i8* bitcast (i8** getelementptr inbounds (i8** @_ZTVN10__cxxabiv117__class_type_infoE, i32 2) to i8*),
    i8* getelementptr inbounds ([22 x i8]* @"System.IAsyncResult String Name", i32 0, i32 0)
}
; RTTI pointer
@"System.IAsyncResult Pointer String Name" = linkonce_odr constant [23 x i8] c"P19System.IAsyncResult\00"
@"System.IAsyncResult Pointer Info" = linkonce_odr unnamed_addr constant { i8*, i8*, i32, i8* } {
    i8* bitcast (i8** getelementptr inbounds (i8** @_ZTVN10__cxxabiv119__pointer_type_infoE, i32 2) to i8*),
    i8* getelementptr inbounds ([23 x i8]* @"System.IAsyncResult Pointer String Name", i32 0, i32 0),
    i32 0,
    i8* bitcast ({ i8*, i8* }* @"System.IAsyncResult Info" to i8*)
}

; Init Object method
define void @"Void System.IAsyncResult..init()"(%"System.IAsyncResult"* %arg.this) #52 {
    %this = alloca %"System.IAsyncResult"*, align 4
    store %"System.IAsyncResult"* %arg.this, %"System.IAsyncResult"** %this, align 4
    %.r1 = load %"System.IAsyncResult"** %this, align 4
    ret void
}



%"System.IComparable" = type {
    i32 (...)**
    
}

; RTTI class
@"System.IComparable String Name" = linkonce_odr constant [21 x i8] c"18System.IComparable\00"
@"System.IComparable Info" = linkonce_odr unnamed_addr constant { i8*, i8* } {
    i8* bitcast (i8** getelementptr inbounds (i8** @_ZTVN10__cxxabiv117__class_type_infoE, i32 2) to i8*),
    i8* getelementptr inbounds ([21 x i8]* @"System.IComparable String Name", i32 0, i32 0)
}
; RTTI pointer
@"System.IComparable Pointer String Name" = linkonce_odr constant [22 x i8] c"P18System.IComparable\00"
@"System.IComparable Pointer Info" = linkonce_odr unnamed_addr constant { i8*, i8*, i32, i8* } {
    i8* bitcast (i8** getelementptr inbounds (i8** @_ZTVN10__cxxabiv119__pointer_type_infoE, i32 2) to i8*),
    i8* getelementptr inbounds ([22 x i8]* @"System.IComparable Pointer String Name", i32 0, i32 0),
    i32 0,
    i8* bitcast ({ i8*, i8* }* @"System.IComparable Info" to i8*)
}

; Init Object method
define void @"Void System.IComparable..init()"(%"System.IComparable"* %arg.this) #53 {
    %this = alloca %"System.IComparable"*, align 4
    store %"System.IComparable"* %arg.this, %"System.IComparable"** %this, align 4
    %.r1 = load %"System.IComparable"** %this, align 4
    ret void
}



%"System.ICustomFormatter" = type {
    i32 (...)**
    
}

; RTTI class
@"System.ICustomFormatter String Name" = linkonce_odr constant [26 x i8] c"23System.ICustomFormatter\00"
@"System.ICustomFormatter Info" = linkonce_odr unnamed_addr constant { i8*, i8* } {
    i8* bitcast (i8** getelementptr inbounds (i8** @_ZTVN10__cxxabiv117__class_type_infoE, i32 2) to i8*),
    i8* getelementptr inbounds ([26 x i8]* @"System.ICustomFormatter String Name", i32 0, i32 0)
}
; RTTI pointer
@"System.ICustomFormatter Pointer String Name" = linkonce_odr constant [27 x i8] c"P23System.ICustomFormatter\00"
@"System.ICustomFormatter Pointer Info" = linkonce_odr unnamed_addr constant { i8*, i8*, i32, i8* } {
    i8* bitcast (i8** getelementptr inbounds (i8** @_ZTVN10__cxxabiv119__pointer_type_infoE, i32 2) to i8*),
    i8* getelementptr inbounds ([27 x i8]* @"System.ICustomFormatter Pointer String Name", i32 0, i32 0),
    i32 0,
    i8* bitcast ({ i8*, i8* }* @"System.ICustomFormatter Info" to i8*)
}

; Init Object method
define void @"Void System.ICustomFormatter..init()"(%"System.ICustomFormatter"* %arg.this) #54 {
    %this = alloca %"System.ICustomFormatter"*, align 4
    store %"System.ICustomFormatter"* %arg.this, %"System.ICustomFormatter"** %this, align 4
    %.r1 = load %"System.ICustomFormatter"** %this, align 4
    ret void
}



%"System.IFormatProvider" = type {
    i32 (...)**
    
}

; RTTI class
@"System.IFormatProvider String Name" = linkonce_odr constant [25 x i8] c"22System.IFormatProvider\00"
@"System.IFormatProvider Info" = linkonce_odr unnamed_addr constant { i8*, i8* } {
    i8* bitcast (i8** getelementptr inbounds (i8** @_ZTVN10__cxxabiv117__class_type_infoE, i32 2) to i8*),
    i8* getelementptr inbounds ([25 x i8]* @"System.IFormatProvider String Name", i32 0, i32 0)
}
; RTTI pointer
@"System.IFormatProvider Pointer String Name" = linkonce_odr constant [26 x i8] c"P22System.IFormatProvider\00"
@"System.IFormatProvider Pointer Info" = linkonce_odr unnamed_addr constant { i8*, i8*, i32, i8* } {
    i8* bitcast (i8** getelementptr inbounds (i8** @_ZTVN10__cxxabiv119__pointer_type_infoE, i32 2) to i8*),
    i8* getelementptr inbounds ([26 x i8]* @"System.IFormatProvider Pointer String Name", i32 0, i32 0),
    i32 0,
    i8* bitcast ({ i8*, i8* }* @"System.IFormatProvider Info" to i8*)
}

; Init Object method
define void @"Void System.IFormatProvider..init()"(%"System.IFormatProvider"* %arg.this) #55 {
    %this = alloca %"System.IFormatProvider"*, align 4
    store %"System.IFormatProvider"* %arg.this, %"System.IFormatProvider"** %this, align 4
    %.r1 = load %"System.IFormatProvider"** %this, align 4
    ret void
}



%"System.IFormattable" = type {
    i32 (...)**
    
}

; RTTI class
@"System.IFormattable String Name" = linkonce_odr constant [22 x i8] c"19System.IFormattable\00"
@"System.IFormattable Info" = linkonce_odr unnamed_addr constant { i8*, i8* } {
    i8* bitcast (i8** getelementptr inbounds (i8** @_ZTVN10__cxxabiv117__class_type_infoE, i32 2) to i8*),
    i8* getelementptr inbounds ([22 x i8]* @"System.IFormattable String Name", i32 0, i32 0)
}
; RTTI pointer
@"System.IFormattable Pointer String Name" = linkonce_odr constant [23 x i8] c"P19System.IFormattable\00"
@"System.IFormattable Pointer Info" = linkonce_odr unnamed_addr constant { i8*, i8*, i32, i8* } {
    i8* bitcast (i8** getelementptr inbounds (i8** @_ZTVN10__cxxabiv119__pointer_type_infoE, i32 2) to i8*),
    i8* getelementptr inbounds ([23 x i8]* @"System.IFormattable Pointer String Name", i32 0, i32 0),
    i32 0,
    i8* bitcast ({ i8*, i8* }* @"System.IFormattable Info" to i8*)
}

; Init Object method
define void @"Void System.IFormattable..init()"(%"System.IFormattable"* %arg.this) #56 {
    %this = alloca %"System.IFormattable"*, align 4
    store %"System.IFormattable"* %arg.this, %"System.IFormattable"** %this, align 4
    %.r1 = load %"System.IFormattable"** %this, align 4
    ret void
}



%"System.IndexOutOfRangeException" = type {
    %"System.SystemException"
}

@"System.IndexOutOfRangeException Virtual Table" = linkonce_odr unnamed_addr constant [8 x i8*] [
    i8* null,
    i8* bitcast ({ i8*, i8*, i8* }* @"System.IndexOutOfRangeException Info" to i8*),
    i8* bitcast (%"System.String"* (%"System.Exception"*)* @"System.String System.Exception.ToString()" to i8*),
    i8* bitcast (i1 (%"System.Object"*, %"System.Object"*)* @"Boolean System.Object.Equals(System.Object)" to i8*),
    i8* bitcast (i32 (%"System.Object"*)* @"Int32 System.Object.GetHashCode()" to i8*),
    i8* bitcast (void (%"System.Object"*)* @"Void System.Object.Finalize()" to i8*),
    i8* bitcast (%"System.String"* (%"System.Exception"*)* @"System.String System.Exception.get_Message()" to i8*),
    i8* bitcast (%"System.String"* (%"System.Exception"*)* @"System.String System.Exception.get_StackTrace()" to i8*)
]

; RTTI class
@"System.IndexOutOfRangeException String Name" = linkonce_odr constant [34 x i8] c"31System.IndexOutOfRangeException\00"
@"System.IndexOutOfRangeException Info" = linkonce_odr unnamed_addr constant { i8*, i8*, i8* } {
    i8* bitcast (i8** getelementptr inbounds (i8** @_ZTVN10__cxxabiv120__si_class_type_infoE, i32 2) to i8*),
    i8* getelementptr inbounds ([34 x i8]* @"System.IndexOutOfRangeException String Name", i32 0, i32 0),
    i8* bitcast ({ i8*, i8*, i8* }* @"System.SystemException Info" to i8*)
}
; RTTI pointer
@"System.IndexOutOfRangeException Pointer String Name" = linkonce_odr constant [35 x i8] c"P31System.IndexOutOfRangeException\00"
@"System.IndexOutOfRangeException Pointer Info" = linkonce_odr unnamed_addr constant { i8*, i8*, i32, i8* } {
    i8* bitcast (i8** getelementptr inbounds (i8** @_ZTVN10__cxxabiv119__pointer_type_infoE, i32 2) to i8*),
    i8* getelementptr inbounds ([35 x i8]* @"System.IndexOutOfRangeException Pointer String Name", i32 0, i32 0),
    i32 0,
    i8* bitcast ({ i8*, i8*, i8* }* @"System.IndexOutOfRangeException Info" to i8*)
}

; Init Object method
define void @"Void System.IndexOutOfRangeException..init()"(%"System.IndexOutOfRangeException"* %arg.this) #57 {
    %this = alloca %"System.IndexOutOfRangeException"*, align 4
    store %"System.IndexOutOfRangeException"* %arg.this, %"System.IndexOutOfRangeException"** %this, align 4
    %.r1 = load %"System.IndexOutOfRangeException"** %this, align 4
    ; set virtual table
    %.r2 = bitcast %"System.IndexOutOfRangeException"* %.r1 to i8***
    store i8** getelementptr inbounds ([8 x i8*]* @"System.IndexOutOfRangeException Virtual Table", i64 0, i64 2), i8*** %.r2
    ret void
}



%"System.Int16" = type {
    %"System.ValueType",
    i16
}

@"System.Int16 Virtual Table" = linkonce_odr unnamed_addr constant [6 x i8*] [
    i8* null,
    i8* bitcast ({ i8*, i8*, i8* }* @"System.Int16 Info" to i8*),
    i8* bitcast (%"System.String"* (%"System.Int16"*)* @"System.String System.Int16.ToString()" to i8*),
    i8* bitcast (i1 (%"System.ValueType"*, %"System.Object"*)* @"Boolean System.ValueType.Equals(System.Object)" to i8*),
    i8* bitcast (i32 (%"System.ValueType"*)* @"Int32 System.ValueType.GetHashCode()" to i8*),
    i8* bitcast (void (%"System.Object"*)* @"Void System.Object.Finalize()" to i8*)
]

; RTTI class
@"System.Int16 String Name" = linkonce_odr constant [15 x i8] c"12System.Int16\00"
@"System.Int16 Info" = linkonce_odr unnamed_addr constant { i8*, i8*, i8* } {
    i8* bitcast (i8** getelementptr inbounds (i8** @_ZTVN10__cxxabiv120__si_class_type_infoE, i32 2) to i8*),
    i8* getelementptr inbounds ([15 x i8]* @"System.Int16 String Name", i32 0, i32 0),
    i8* bitcast ({ i8*, i8*, i8* }* @"System.ValueType Info" to i8*)
}
; RTTI pointer
@"System.Int16 Pointer String Name" = linkonce_odr constant [16 x i8] c"P12System.Int16\00"
@"System.Int16 Pointer Info" = linkonce_odr unnamed_addr constant { i8*, i8*, i32, i8* } {
    i8* bitcast (i8** getelementptr inbounds (i8** @_ZTVN10__cxxabiv119__pointer_type_infoE, i32 2) to i8*),
    i8* getelementptr inbounds ([16 x i8]* @"System.Int16 Pointer String Name", i32 0, i32 0),
    i32 0,
    i8* bitcast ({ i8*, i8*, i8* }* @"System.Int16 Info" to i8*)
}

; Init Object method
define void @"Void System.Int16..init()"(%"System.Int16"* %arg.this) #58 {
    %this = alloca %"System.Int16"*, align 4
    store %"System.Int16"* %arg.this, %"System.Int16"** %this, align 4
    %.r1 = load %"System.Int16"** %this, align 4
    ; set virtual table
    %.r2 = bitcast %"System.Int16"* %.r1 to i8***
    store i8** getelementptr inbounds ([6 x i8*]* @"System.Int16 Virtual Table", i64 0, i64 2), i8*** %.r2
    ret void
}

; Box method
define %"System.Int16"* @"System.Int16 System.Int16..box(Int16)"(i16 %arg.value) #59 {
    %value = alloca i16, align 4
    store i16 %arg.value, i16* %value, align 4
    %.r1 = load i16* %value, align 4
    ; Boxing
    ; New obj
    %.r2 = call i8* @_Znwj(i32 6)
    call void @llvm.memset.p0i8.i32(i8* %.r2, i8 0, i32 6, i32 4, i1 false)
    %.r3 = bitcast i8* %.r2 to %"System.Int16"*
    ; call Init Object method
    call void @"Void System.Int16..init()"(%"System.Int16"* %.r3)
    ; end of new obj
    ; Copy data
    %.r4 = getelementptr inbounds %"System.Int16"* %.r3, i32 0, i32 1
    store i16 %.r1, i16* %.r4
    ; End of Copy data
    ret %"System.Int16"* %.r3
}

; Unbox method
define i16 @"Int16 System.Int16..unbox()"(%"System.Int16"* %arg.this) #60 {
    %this = alloca %"System.Int16"*, align 4
    store %"System.Int16"* %arg.this, %"System.Int16"** %this, align 4
    %.r1 = load %"System.Int16"** %this, align 4
    ; Unboxing
    ; Copy data
    %.r2 = getelementptr inbounds %"System.Int16"* %.r1, i32 0, i32 1
    %.r3 = load i16* %.r2, align 4
    ; End of Copy data
    ret i16 %.r3
}



%"System.Int32" = type {
    %"System.ValueType",
    i32
}

@"System.Int32 Virtual Table" = linkonce_odr unnamed_addr constant [6 x i8*] [
    i8* null,
    i8* bitcast ({ i8*, i8*, i8* }* @"System.Int32 Info" to i8*),
    i8* bitcast (%"System.String"* (%"System.Int32"*)* @"System.String System.Int32.ToString()" to i8*),
    i8* bitcast (i1 (%"System.Int32"*, %"System.Object"*)* @"Boolean System.Int32.Equals(System.Object)" to i8*),
    i8* bitcast (i32 (%"System.Int32"*)* @"Int32 System.Int32.GetHashCode()" to i8*),
    i8* bitcast (void (%"System.Object"*)* @"Void System.Object.Finalize()" to i8*)
]

; RTTI class
@"System.Int32 String Name" = linkonce_odr constant [15 x i8] c"12System.Int32\00"
@"System.Int32 Info" = linkonce_odr unnamed_addr constant { i8*, i8*, i8* } {
    i8* bitcast (i8** getelementptr inbounds (i8** @_ZTVN10__cxxabiv120__si_class_type_infoE, i32 2) to i8*),
    i8* getelementptr inbounds ([15 x i8]* @"System.Int32 String Name", i32 0, i32 0),
    i8* bitcast ({ i8*, i8*, i8* }* @"System.ValueType Info" to i8*)
}
; RTTI pointer
@"System.Int32 Pointer String Name" = linkonce_odr constant [16 x i8] c"P12System.Int32\00"
@"System.Int32 Pointer Info" = linkonce_odr unnamed_addr constant { i8*, i8*, i32, i8* } {
    i8* bitcast (i8** getelementptr inbounds (i8** @_ZTVN10__cxxabiv119__pointer_type_infoE, i32 2) to i8*),
    i8* getelementptr inbounds ([16 x i8]* @"System.Int32 Pointer String Name", i32 0, i32 0),
    i32 0,
    i8* bitcast ({ i8*, i8*, i8* }* @"System.Int32 Info" to i8*)
}

; Init Object method
define void @"Void System.Int32..init()"(%"System.Int32"* %arg.this) #61 {
    %this = alloca %"System.Int32"*, align 4
    store %"System.Int32"* %arg.this, %"System.Int32"** %this, align 4
    %.r1 = load %"System.Int32"** %this, align 4
    ; set virtual table
    %.r2 = bitcast %"System.Int32"* %.r1 to i8***
    store i8** getelementptr inbounds ([6 x i8*]* @"System.Int32 Virtual Table", i64 0, i64 2), i8*** %.r2
    ret void
}

; Box method
define %"System.Int32"* @"System.Int32 System.Int32..box(Int32)"(i32 %arg.value) #62 {
    %value = alloca i32, align 4
    store i32 %arg.value, i32* %value, align 4
    %.r1 = load i32* %value, align 4
    ; Boxing
    ; New obj
    %.r2 = call i8* @_Znwj(i32 8)
    call void @llvm.memset.p0i8.i32(i8* %.r2, i8 0, i32 8, i32 4, i1 false)
    %.r3 = bitcast i8* %.r2 to %"System.Int32"*
    ; call Init Object method
    call void @"Void System.Int32..init()"(%"System.Int32"* %.r3)
    ; end of new obj
    ; Copy data
    %.r4 = getelementptr inbounds %"System.Int32"* %.r3, i32 0, i32 1
    store i32 %.r1, i32* %.r4
    ; End of Copy data
    ret %"System.Int32"* %.r3
}

; Unbox method
define i32 @"Int32 System.Int32..unbox()"(%"System.Int32"* %arg.this) #63 {
    %this = alloca %"System.Int32"*, align 4
    store %"System.Int32"* %arg.this, %"System.Int32"** %this, align 4
    %.r1 = load %"System.Int32"** %this, align 4
    ; Unboxing
    ; Copy data
    %.r2 = getelementptr inbounds %"System.Int32"* %.r1, i32 0, i32 1
    %.r3 = load i32* %.r2, align 4
    ; End of Copy data
    ret i32 %.r3
}



%"System.Int64" = type {
    %"System.ValueType",
    i64
}

@"System.Int64 Virtual Table" = linkonce_odr unnamed_addr constant [6 x i8*] [
    i8* null,
    i8* bitcast ({ i8*, i8*, i8* }* @"System.Int64 Info" to i8*),
    i8* bitcast (%"System.String"* (%"System.Int64"*)* @"System.String System.Int64.ToString()" to i8*),
    i8* bitcast (i1 (%"System.ValueType"*, %"System.Object"*)* @"Boolean System.ValueType.Equals(System.Object)" to i8*),
    i8* bitcast (i32 (%"System.ValueType"*)* @"Int32 System.ValueType.GetHashCode()" to i8*),
    i8* bitcast (void (%"System.Object"*)* @"Void System.Object.Finalize()" to i8*)
]

; RTTI class
@"System.Int64 String Name" = linkonce_odr constant [15 x i8] c"12System.Int64\00"
@"System.Int64 Info" = linkonce_odr unnamed_addr constant { i8*, i8*, i8* } {
    i8* bitcast (i8** getelementptr inbounds (i8** @_ZTVN10__cxxabiv120__si_class_type_infoE, i32 2) to i8*),
    i8* getelementptr inbounds ([15 x i8]* @"System.Int64 String Name", i32 0, i32 0),
    i8* bitcast ({ i8*, i8*, i8* }* @"System.ValueType Info" to i8*)
}
; RTTI pointer
@"System.Int64 Pointer String Name" = linkonce_odr constant [16 x i8] c"P12System.Int64\00"
@"System.Int64 Pointer Info" = linkonce_odr unnamed_addr constant { i8*, i8*, i32, i8* } {
    i8* bitcast (i8** getelementptr inbounds (i8** @_ZTVN10__cxxabiv119__pointer_type_infoE, i32 2) to i8*),
    i8* getelementptr inbounds ([16 x i8]* @"System.Int64 Pointer String Name", i32 0, i32 0),
    i32 0,
    i8* bitcast ({ i8*, i8*, i8* }* @"System.Int64 Info" to i8*)
}

; Init Object method
define void @"Void System.Int64..init()"(%"System.Int64"* %arg.this) #64 {
    %this = alloca %"System.Int64"*, align 4
    store %"System.Int64"* %arg.this, %"System.Int64"** %this, align 4
    %.r1 = load %"System.Int64"** %this, align 4
    ; set virtual table
    %.r2 = bitcast %"System.Int64"* %.r1 to i8***
    store i8** getelementptr inbounds ([6 x i8*]* @"System.Int64 Virtual Table", i64 0, i64 2), i8*** %.r2
    ret void
}

; Box method
define %"System.Int64"* @"System.Int64 System.Int64..box(Int64)"(i64 %arg.value) #65 {
    %value = alloca i64, align 4
    store i64 %arg.value, i64* %value, align 4
    %.r1 = load i64* %value, align 4
    ; Boxing
    ; New obj
    %.r2 = call i8* @_Znwj(i32 12)
    call void @llvm.memset.p0i8.i32(i8* %.r2, i8 0, i32 12, i32 4, i1 false)
    %.r3 = bitcast i8* %.r2 to %"System.Int64"*
    ; call Init Object method
    call void @"Void System.Int64..init()"(%"System.Int64"* %.r3)
    ; end of new obj
    ; Copy data
    %.r4 = getelementptr inbounds %"System.Int64"* %.r3, i32 0, i32 1
    store i64 %.r1, i64* %.r4
    ; End of Copy data
    ret %"System.Int64"* %.r3
}

; Unbox method
define i64 @"Int64 System.Int64..unbox()"(%"System.Int64"* %arg.this) #66 {
    %this = alloca %"System.Int64"*, align 4
    store %"System.Int64"* %arg.this, %"System.Int64"** %this, align 4
    %.r1 = load %"System.Int64"** %this, align 4
    ; Unboxing
    ; Copy data
    %.r2 = getelementptr inbounds %"System.Int64"* %.r1, i32 0, i32 1
    %.r3 = load i64* %.r2, align 4
    ; End of Copy data
    ret i64 %.r3
}



%"System.IntPtr" = type {
    %"System.ValueType",
    i8*
}
@"System.IntPtr.Zero" = global %"System.IntPtr" zeroinitializer, align 4

@"System.IntPtr Virtual Table" = linkonce_odr unnamed_addr constant [6 x i8*] [
    i8* null,
    i8* bitcast ({ i8*, i8*, i8* }* @"System.IntPtr Info" to i8*),
    i8* bitcast (%"System.String"* (%"System.ValueType"*)* @"System.String System.ValueType.ToString()" to i8*),
    i8* bitcast (i1 (%"System.ValueType"*, %"System.Object"*)* @"Boolean System.ValueType.Equals(System.Object)" to i8*),
    i8* bitcast (i32 (%"System.ValueType"*)* @"Int32 System.ValueType.GetHashCode()" to i8*),
    i8* bitcast (void (%"System.Object"*)* @"Void System.Object.Finalize()" to i8*)
]

; RTTI class
@"System.IntPtr String Name" = linkonce_odr constant [16 x i8] c"13System.IntPtr\00"
@"System.IntPtr Info" = linkonce_odr unnamed_addr constant { i8*, i8*, i8* } {
    i8* bitcast (i8** getelementptr inbounds (i8** @_ZTVN10__cxxabiv120__si_class_type_infoE, i32 2) to i8*),
    i8* getelementptr inbounds ([16 x i8]* @"System.IntPtr String Name", i32 0, i32 0),
    i8* bitcast ({ i8*, i8*, i8* }* @"System.ValueType Info" to i8*)
}
; RTTI pointer
@"System.IntPtr Pointer String Name" = linkonce_odr constant [17 x i8] c"P13System.IntPtr\00"
@"System.IntPtr Pointer Info" = linkonce_odr unnamed_addr constant { i8*, i8*, i32, i8* } {
    i8* bitcast (i8** getelementptr inbounds (i8** @_ZTVN10__cxxabiv119__pointer_type_infoE, i32 2) to i8*),
    i8* getelementptr inbounds ([17 x i8]* @"System.IntPtr Pointer String Name", i32 0, i32 0),
    i32 0,
    i8* bitcast ({ i8*, i8*, i8* }* @"System.IntPtr Info" to i8*)
}

; Init Object method
define void @"Void System.IntPtr..init()"(%"System.IntPtr"* %arg.this) #67 {
    %this = alloca %"System.IntPtr"*, align 4
    store %"System.IntPtr"* %arg.this, %"System.IntPtr"** %this, align 4
    %.r1 = load %"System.IntPtr"** %this, align 4
    ; set virtual table
    %.r2 = bitcast %"System.IntPtr"* %.r1 to i8***
    store i8** getelementptr inbounds ([6 x i8*]* @"System.IntPtr Virtual Table", i64 0, i64 2), i8*** %.r2
    ret void
}



%"System.InvalidCastException" = type {
    %"System.SystemException"
}

@"System.InvalidCastException Virtual Table" = linkonce_odr unnamed_addr constant [8 x i8*] [
    i8* null,
    i8* bitcast ({ i8*, i8*, i8* }* @"System.InvalidCastException Info" to i8*),
    i8* bitcast (%"System.String"* (%"System.Exception"*)* @"System.String System.Exception.ToString()" to i8*),
    i8* bitcast (i1 (%"System.Object"*, %"System.Object"*)* @"Boolean System.Object.Equals(System.Object)" to i8*),
    i8* bitcast (i32 (%"System.Object"*)* @"Int32 System.Object.GetHashCode()" to i8*),
    i8* bitcast (void (%"System.Object"*)* @"Void System.Object.Finalize()" to i8*),
    i8* bitcast (%"System.String"* (%"System.Exception"*)* @"System.String System.Exception.get_Message()" to i8*),
    i8* bitcast (%"System.String"* (%"System.Exception"*)* @"System.String System.Exception.get_StackTrace()" to i8*)
]

; RTTI class
@"System.InvalidCastException String Name" = linkonce_odr constant [30 x i8] c"27System.InvalidCastException\00"
@"System.InvalidCastException Info" = linkonce_odr unnamed_addr constant { i8*, i8*, i8* } {
    i8* bitcast (i8** getelementptr inbounds (i8** @_ZTVN10__cxxabiv120__si_class_type_infoE, i32 2) to i8*),
    i8* getelementptr inbounds ([30 x i8]* @"System.InvalidCastException String Name", i32 0, i32 0),
    i8* bitcast ({ i8*, i8*, i8* }* @"System.SystemException Info" to i8*)
}
; RTTI pointer
@"System.InvalidCastException Pointer String Name" = linkonce_odr constant [31 x i8] c"P27System.InvalidCastException\00"
@"System.InvalidCastException Pointer Info" = linkonce_odr unnamed_addr constant { i8*, i8*, i32, i8* } {
    i8* bitcast (i8** getelementptr inbounds (i8** @_ZTVN10__cxxabiv119__pointer_type_infoE, i32 2) to i8*),
    i8* getelementptr inbounds ([31 x i8]* @"System.InvalidCastException Pointer String Name", i32 0, i32 0),
    i32 0,
    i8* bitcast ({ i8*, i8*, i8* }* @"System.InvalidCastException Info" to i8*)
}

; Init Object method
define void @"Void System.InvalidCastException..init()"(%"System.InvalidCastException"* %arg.this) #68 {
    %this = alloca %"System.InvalidCastException"*, align 4
    store %"System.InvalidCastException"* %arg.this, %"System.InvalidCastException"** %this, align 4
    %.r1 = load %"System.InvalidCastException"** %this, align 4
    ; set virtual table
    %.r2 = bitcast %"System.InvalidCastException"* %.r1 to i8***
    store i8** getelementptr inbounds ([8 x i8*]* @"System.InvalidCastException Virtual Table", i64 0, i64 2), i8*** %.r2
    ret void
}



%"System.InvalidOperationException" = type {
    %"System.SystemException"
}

@"System.InvalidOperationException Virtual Table" = linkonce_odr unnamed_addr constant [8 x i8*] [
    i8* null,
    i8* bitcast ({ i8*, i8*, i8* }* @"System.InvalidOperationException Info" to i8*),
    i8* bitcast (%"System.String"* (%"System.Exception"*)* @"System.String System.Exception.ToString()" to i8*),
    i8* bitcast (i1 (%"System.Object"*, %"System.Object"*)* @"Boolean System.Object.Equals(System.Object)" to i8*),
    i8* bitcast (i32 (%"System.Object"*)* @"Int32 System.Object.GetHashCode()" to i8*),
    i8* bitcast (void (%"System.Object"*)* @"Void System.Object.Finalize()" to i8*),
    i8* bitcast (%"System.String"* (%"System.Exception"*)* @"System.String System.Exception.get_Message()" to i8*),
    i8* bitcast (%"System.String"* (%"System.Exception"*)* @"System.String System.Exception.get_StackTrace()" to i8*)
]

; RTTI class
@"System.InvalidOperationException String Name" = linkonce_odr constant [35 x i8] c"32System.InvalidOperationException\00"
@"System.InvalidOperationException Info" = linkonce_odr unnamed_addr constant { i8*, i8*, i8* } {
    i8* bitcast (i8** getelementptr inbounds (i8** @_ZTVN10__cxxabiv120__si_class_type_infoE, i32 2) to i8*),
    i8* getelementptr inbounds ([35 x i8]* @"System.InvalidOperationException String Name", i32 0, i32 0),
    i8* bitcast ({ i8*, i8*, i8* }* @"System.SystemException Info" to i8*)
}
; RTTI pointer
@"System.InvalidOperationException Pointer String Name" = linkonce_odr constant [36 x i8] c"P32System.InvalidOperationException\00"
@"System.InvalidOperationException Pointer Info" = linkonce_odr unnamed_addr constant { i8*, i8*, i32, i8* } {
    i8* bitcast (i8** getelementptr inbounds (i8** @_ZTVN10__cxxabiv119__pointer_type_infoE, i32 2) to i8*),
    i8* getelementptr inbounds ([36 x i8]* @"System.InvalidOperationException Pointer String Name", i32 0, i32 0),
    i32 0,
    i8* bitcast ({ i8*, i8*, i8* }* @"System.InvalidOperationException Info" to i8*)
}

; Init Object method
define void @"Void System.InvalidOperationException..init()"(%"System.InvalidOperationException"* %arg.this) #69 {
    %this = alloca %"System.InvalidOperationException"*, align 4
    store %"System.InvalidOperationException"* %arg.this, %"System.InvalidOperationException"** %this, align 4
    %.r1 = load %"System.InvalidOperationException"** %this, align 4
    ; set virtual table
    %.r2 = bitcast %"System.InvalidOperationException"* %.r1 to i8***
    store i8** getelementptr inbounds ([8 x i8*]* @"System.InvalidOperationException Virtual Table", i64 0, i64 2), i8*** %.r2
    ret void
}



%"System.Math" = type {
    %"System.Object"
}

@"System.Math Virtual Table" = linkonce_odr unnamed_addr constant [6 x i8*] [
    i8* null,
    i8* bitcast ({ i8*, i8*, i8* }* @"System.Math Info" to i8*),
    i8* bitcast (%"System.String"* (%"System.Object"*)* @"System.String System.Object.ToString()" to i8*),
    i8* bitcast (i1 (%"System.Object"*, %"System.Object"*)* @"Boolean System.Object.Equals(System.Object)" to i8*),
    i8* bitcast (i32 (%"System.Object"*)* @"Int32 System.Object.GetHashCode()" to i8*),
    i8* bitcast (void (%"System.Object"*)* @"Void System.Object.Finalize()" to i8*)
]

; RTTI class
@"System.Math String Name" = linkonce_odr constant [14 x i8] c"11System.Math\00"
@"System.Math Info" = linkonce_odr unnamed_addr constant { i8*, i8*, i8* } {
    i8* bitcast (i8** getelementptr inbounds (i8** @_ZTVN10__cxxabiv120__si_class_type_infoE, i32 2) to i8*),
    i8* getelementptr inbounds ([14 x i8]* @"System.Math String Name", i32 0, i32 0),
    i8* bitcast ({ i8*, i8* }* @"System.Object Info" to i8*)
}
; RTTI pointer
@"System.Math Pointer String Name" = linkonce_odr constant [15 x i8] c"P11System.Math\00"
@"System.Math Pointer Info" = linkonce_odr unnamed_addr constant { i8*, i8*, i32, i8* } {
    i8* bitcast (i8** getelementptr inbounds (i8** @_ZTVN10__cxxabiv119__pointer_type_infoE, i32 2) to i8*),
    i8* getelementptr inbounds ([15 x i8]* @"System.Math Pointer String Name", i32 0, i32 0),
    i32 0,
    i8* bitcast ({ i8*, i8*, i8* }* @"System.Math Info" to i8*)
}

; Init Object method
define void @"Void System.Math..init()"(%"System.Math"* %arg.this) #70 {
    %this = alloca %"System.Math"*, align 4
    store %"System.Math"* %arg.this, %"System.Math"** %this, align 4
    %.r1 = load %"System.Math"** %this, align 4
    ; set virtual table
    %.r2 = bitcast %"System.Math"* %.r1 to i8***
    store i8** getelementptr inbounds ([6 x i8*]* @"System.Math Virtual Table", i64 0, i64 2), i8*** %.r2
    ret void
}



%"System.NonSerializedAttribute" = type {
    %"System.Attribute"
}

@"System.NonSerializedAttribute Virtual Table" = linkonce_odr unnamed_addr constant [6 x i8*] [
    i8* null,
    i8* bitcast ({ i8*, i8*, i8* }* @"System.NonSerializedAttribute Info" to i8*),
    i8* bitcast (%"System.String"* (%"System.Object"*)* @"System.String System.Object.ToString()" to i8*),
    i8* bitcast (i1 (%"System.Object"*, %"System.Object"*)* @"Boolean System.Object.Equals(System.Object)" to i8*),
    i8* bitcast (i32 (%"System.Object"*)* @"Int32 System.Object.GetHashCode()" to i8*),
    i8* bitcast (void (%"System.Object"*)* @"Void System.Object.Finalize()" to i8*)
]

; RTTI class
@"System.NonSerializedAttribute String Name" = linkonce_odr constant [32 x i8] c"29System.NonSerializedAttribute\00"
@"System.NonSerializedAttribute Info" = linkonce_odr unnamed_addr constant { i8*, i8*, i8* } {
    i8* bitcast (i8** getelementptr inbounds (i8** @_ZTVN10__cxxabiv120__si_class_type_infoE, i32 2) to i8*),
    i8* getelementptr inbounds ([32 x i8]* @"System.NonSerializedAttribute String Name", i32 0, i32 0),
    i8* bitcast ({ i8*, i8*, i8* }* @"System.Attribute Info" to i8*)
}
; RTTI pointer
@"System.NonSerializedAttribute Pointer String Name" = linkonce_odr constant [33 x i8] c"P29System.NonSerializedAttribute\00"
@"System.NonSerializedAttribute Pointer Info" = linkonce_odr unnamed_addr constant { i8*, i8*, i32, i8* } {
    i8* bitcast (i8** getelementptr inbounds (i8** @_ZTVN10__cxxabiv119__pointer_type_infoE, i32 2) to i8*),
    i8* getelementptr inbounds ([33 x i8]* @"System.NonSerializedAttribute Pointer String Name", i32 0, i32 0),
    i32 0,
    i8* bitcast ({ i8*, i8*, i8* }* @"System.NonSerializedAttribute Info" to i8*)
}

; Init Object method
define void @"Void System.NonSerializedAttribute..init()"(%"System.NonSerializedAttribute"* %arg.this) #71 {
    %this = alloca %"System.NonSerializedAttribute"*, align 4
    store %"System.NonSerializedAttribute"* %arg.this, %"System.NonSerializedAttribute"** %this, align 4
    %.r1 = load %"System.NonSerializedAttribute"** %this, align 4
    ; set virtual table
    %.r2 = bitcast %"System.NonSerializedAttribute"* %.r1 to i8***
    store i8** getelementptr inbounds ([6 x i8*]* @"System.NonSerializedAttribute Virtual Table", i64 0, i64 2), i8*** %.r2
    ret void
}



%"System.NotImplementedException" = type {
    %"System.SystemException"
}

@"System.NotImplementedException Virtual Table" = linkonce_odr unnamed_addr constant [8 x i8*] [
    i8* null,
    i8* bitcast ({ i8*, i8*, i8* }* @"System.NotImplementedException Info" to i8*),
    i8* bitcast (%"System.String"* (%"System.Exception"*)* @"System.String System.Exception.ToString()" to i8*),
    i8* bitcast (i1 (%"System.Object"*, %"System.Object"*)* @"Boolean System.Object.Equals(System.Object)" to i8*),
    i8* bitcast (i32 (%"System.Object"*)* @"Int32 System.Object.GetHashCode()" to i8*),
    i8* bitcast (void (%"System.Object"*)* @"Void System.Object.Finalize()" to i8*),
    i8* bitcast (%"System.String"* (%"System.Exception"*)* @"System.String System.Exception.get_Message()" to i8*),
    i8* bitcast (%"System.String"* (%"System.Exception"*)* @"System.String System.Exception.get_StackTrace()" to i8*)
]

; RTTI class
@"System.NotImplementedException String Name" = linkonce_odr constant [33 x i8] c"30System.NotImplementedException\00"
@"System.NotImplementedException Info" = linkonce_odr unnamed_addr constant { i8*, i8*, i8* } {
    i8* bitcast (i8** getelementptr inbounds (i8** @_ZTVN10__cxxabiv120__si_class_type_infoE, i32 2) to i8*),
    i8* getelementptr inbounds ([33 x i8]* @"System.NotImplementedException String Name", i32 0, i32 0),
    i8* bitcast ({ i8*, i8*, i8* }* @"System.SystemException Info" to i8*)
}
; RTTI pointer
@"System.NotImplementedException Pointer String Name" = linkonce_odr constant [34 x i8] c"P30System.NotImplementedException\00"
@"System.NotImplementedException Pointer Info" = linkonce_odr unnamed_addr constant { i8*, i8*, i32, i8* } {
    i8* bitcast (i8** getelementptr inbounds (i8** @_ZTVN10__cxxabiv119__pointer_type_infoE, i32 2) to i8*),
    i8* getelementptr inbounds ([34 x i8]* @"System.NotImplementedException Pointer String Name", i32 0, i32 0),
    i32 0,
    i8* bitcast ({ i8*, i8*, i8* }* @"System.NotImplementedException Info" to i8*)
}

; Init Object method
define void @"Void System.NotImplementedException..init()"(%"System.NotImplementedException"* %arg.this) #72 {
    %this = alloca %"System.NotImplementedException"*, align 4
    store %"System.NotImplementedException"* %arg.this, %"System.NotImplementedException"** %this, align 4
    %.r1 = load %"System.NotImplementedException"** %this, align 4
    ; set virtual table
    %.r2 = bitcast %"System.NotImplementedException"* %.r1 to i8***
    store i8** getelementptr inbounds ([8 x i8*]* @"System.NotImplementedException Virtual Table", i64 0, i64 2), i8*** %.r2
    ret void
}



%"System.NotSupportedException" = type {
    %"System.SystemException"
}

@"System.NotSupportedException Virtual Table" = linkonce_odr unnamed_addr constant [8 x i8*] [
    i8* null,
    i8* bitcast ({ i8*, i8*, i8* }* @"System.NotSupportedException Info" to i8*),
    i8* bitcast (%"System.String"* (%"System.Exception"*)* @"System.String System.Exception.ToString()" to i8*),
    i8* bitcast (i1 (%"System.Object"*, %"System.Object"*)* @"Boolean System.Object.Equals(System.Object)" to i8*),
    i8* bitcast (i32 (%"System.Object"*)* @"Int32 System.Object.GetHashCode()" to i8*),
    i8* bitcast (void (%"System.Object"*)* @"Void System.Object.Finalize()" to i8*),
    i8* bitcast (%"System.String"* (%"System.Exception"*)* @"System.String System.Exception.get_Message()" to i8*),
    i8* bitcast (%"System.String"* (%"System.Exception"*)* @"System.String System.Exception.get_StackTrace()" to i8*)
]

; RTTI class
@"System.NotSupportedException String Name" = linkonce_odr constant [31 x i8] c"28System.NotSupportedException\00"
@"System.NotSupportedException Info" = linkonce_odr unnamed_addr constant { i8*, i8*, i8* } {
    i8* bitcast (i8** getelementptr inbounds (i8** @_ZTVN10__cxxabiv120__si_class_type_infoE, i32 2) to i8*),
    i8* getelementptr inbounds ([31 x i8]* @"System.NotSupportedException String Name", i32 0, i32 0),
    i8* bitcast ({ i8*, i8*, i8* }* @"System.SystemException Info" to i8*)
}
; RTTI pointer
@"System.NotSupportedException Pointer String Name" = linkonce_odr constant [32 x i8] c"P28System.NotSupportedException\00"
@"System.NotSupportedException Pointer Info" = linkonce_odr unnamed_addr constant { i8*, i8*, i32, i8* } {
    i8* bitcast (i8** getelementptr inbounds (i8** @_ZTVN10__cxxabiv119__pointer_type_infoE, i32 2) to i8*),
    i8* getelementptr inbounds ([32 x i8]* @"System.NotSupportedException Pointer String Name", i32 0, i32 0),
    i32 0,
    i8* bitcast ({ i8*, i8*, i8* }* @"System.NotSupportedException Info" to i8*)
}

; Init Object method
define void @"Void System.NotSupportedException..init()"(%"System.NotSupportedException"* %arg.this) #73 {
    %this = alloca %"System.NotSupportedException"*, align 4
    store %"System.NotSupportedException"* %arg.this, %"System.NotSupportedException"** %this, align 4
    %.r1 = load %"System.NotSupportedException"** %this, align 4
    ; set virtual table
    %.r2 = bitcast %"System.NotSupportedException"* %.r1 to i8***
    store i8** getelementptr inbounds ([8 x i8*]* @"System.NotSupportedException Virtual Table", i64 0, i64 2), i8*** %.r2
    ret void
}



%"System.NullReferenceException" = type {
    %"System.SystemException"
}

@"System.NullReferenceException Virtual Table" = linkonce_odr unnamed_addr constant [8 x i8*] [
    i8* null,
    i8* bitcast ({ i8*, i8*, i8* }* @"System.NullReferenceException Info" to i8*),
    i8* bitcast (%"System.String"* (%"System.Exception"*)* @"System.String System.Exception.ToString()" to i8*),
    i8* bitcast (i1 (%"System.Object"*, %"System.Object"*)* @"Boolean System.Object.Equals(System.Object)" to i8*),
    i8* bitcast (i32 (%"System.Object"*)* @"Int32 System.Object.GetHashCode()" to i8*),
    i8* bitcast (void (%"System.Object"*)* @"Void System.Object.Finalize()" to i8*),
    i8* bitcast (%"System.String"* (%"System.Exception"*)* @"System.String System.Exception.get_Message()" to i8*),
    i8* bitcast (%"System.String"* (%"System.Exception"*)* @"System.String System.Exception.get_StackTrace()" to i8*)
]

; RTTI class
@"System.NullReferenceException String Name" = linkonce_odr constant [32 x i8] c"29System.NullReferenceException\00"
@"System.NullReferenceException Info" = linkonce_odr unnamed_addr constant { i8*, i8*, i8* } {
    i8* bitcast (i8** getelementptr inbounds (i8** @_ZTVN10__cxxabiv120__si_class_type_infoE, i32 2) to i8*),
    i8* getelementptr inbounds ([32 x i8]* @"System.NullReferenceException String Name", i32 0, i32 0),
    i8* bitcast ({ i8*, i8*, i8* }* @"System.SystemException Info" to i8*)
}
; RTTI pointer
@"System.NullReferenceException Pointer String Name" = linkonce_odr constant [33 x i8] c"P29System.NullReferenceException\00"
@"System.NullReferenceException Pointer Info" = linkonce_odr unnamed_addr constant { i8*, i8*, i32, i8* } {
    i8* bitcast (i8** getelementptr inbounds (i8** @_ZTVN10__cxxabiv119__pointer_type_infoE, i32 2) to i8*),
    i8* getelementptr inbounds ([33 x i8]* @"System.NullReferenceException Pointer String Name", i32 0, i32 0),
    i32 0,
    i8* bitcast ({ i8*, i8*, i8* }* @"System.NullReferenceException Info" to i8*)
}

; Init Object method
define void @"Void System.NullReferenceException..init()"(%"System.NullReferenceException"* %arg.this) #74 {
    %this = alloca %"System.NullReferenceException"*, align 4
    store %"System.NullReferenceException"* %arg.this, %"System.NullReferenceException"** %this, align 4
    %.r1 = load %"System.NullReferenceException"** %this, align 4
    ; set virtual table
    %.r2 = bitcast %"System.NullReferenceException"* %.r1 to i8***
    store i8** getelementptr inbounds ([8 x i8*]* @"System.NullReferenceException Virtual Table", i64 0, i64 2), i8*** %.r2
    ret void
}



%"System.Number" = type {
    %"System.Object"
}
@"System.Number.NumberChars" = global %"System.String"* undef

@"System.Number Virtual Table" = linkonce_odr unnamed_addr constant [6 x i8*] [
    i8* null,
    i8* bitcast ({ i8*, i8*, i8* }* @"System.Number Info" to i8*),
    i8* bitcast (%"System.String"* (%"System.Object"*)* @"System.String System.Object.ToString()" to i8*),
    i8* bitcast (i1 (%"System.Object"*, %"System.Object"*)* @"Boolean System.Object.Equals(System.Object)" to i8*),
    i8* bitcast (i32 (%"System.Object"*)* @"Int32 System.Object.GetHashCode()" to i8*),
    i8* bitcast (void (%"System.Object"*)* @"Void System.Object.Finalize()" to i8*)
]

; RTTI class
@"System.Number String Name" = linkonce_odr constant [16 x i8] c"13System.Number\00"
@"System.Number Info" = linkonce_odr unnamed_addr constant { i8*, i8*, i8* } {
    i8* bitcast (i8** getelementptr inbounds (i8** @_ZTVN10__cxxabiv120__si_class_type_infoE, i32 2) to i8*),
    i8* getelementptr inbounds ([16 x i8]* @"System.Number String Name", i32 0, i32 0),
    i8* bitcast ({ i8*, i8* }* @"System.Object Info" to i8*)
}
; RTTI pointer
@"System.Number Pointer String Name" = linkonce_odr constant [17 x i8] c"P13System.Number\00"
@"System.Number Pointer Info" = linkonce_odr unnamed_addr constant { i8*, i8*, i32, i8* } {
    i8* bitcast (i8** getelementptr inbounds (i8** @_ZTVN10__cxxabiv119__pointer_type_infoE, i32 2) to i8*),
    i8* getelementptr inbounds ([17 x i8]* @"System.Number Pointer String Name", i32 0, i32 0),
    i32 0,
    i8* bitcast ({ i8*, i8*, i8* }* @"System.Number Info" to i8*)
}

; Init Object method
define void @"Void System.Number..init()"(%"System.Number"* %arg.this) #75 {
    %this = alloca %"System.Number"*, align 4
    store %"System.Number"* %arg.this, %"System.Number"** %this, align 4
    %.r1 = load %"System.Number"** %this, align 4
    ; set virtual table
    %.r2 = bitcast %"System.Number"* %.r1 to i8***
    store i8** getelementptr inbounds ([6 x i8*]* @"System.Number Virtual Table", i64 0, i64 2), i8*** %.r2
    ret void
}



%"System.ObjectDisposedException" = type {
    %"System.SystemException"
}

@"System.ObjectDisposedException Virtual Table" = linkonce_odr unnamed_addr constant [8 x i8*] [
    i8* null,
    i8* bitcast ({ i8*, i8*, i8* }* @"System.ObjectDisposedException Info" to i8*),
    i8* bitcast (%"System.String"* (%"System.Exception"*)* @"System.String System.Exception.ToString()" to i8*),
    i8* bitcast (i1 (%"System.Object"*, %"System.Object"*)* @"Boolean System.Object.Equals(System.Object)" to i8*),
    i8* bitcast (i32 (%"System.Object"*)* @"Int32 System.Object.GetHashCode()" to i8*),
    i8* bitcast (void (%"System.Object"*)* @"Void System.Object.Finalize()" to i8*),
    i8* bitcast (%"System.String"* (%"System.Exception"*)* @"System.String System.Exception.get_Message()" to i8*),
    i8* bitcast (%"System.String"* (%"System.Exception"*)* @"System.String System.Exception.get_StackTrace()" to i8*)
]

; RTTI class
@"System.ObjectDisposedException String Name" = linkonce_odr constant [33 x i8] c"30System.ObjectDisposedException\00"
@"System.ObjectDisposedException Info" = linkonce_odr unnamed_addr constant { i8*, i8*, i8* } {
    i8* bitcast (i8** getelementptr inbounds (i8** @_ZTVN10__cxxabiv120__si_class_type_infoE, i32 2) to i8*),
    i8* getelementptr inbounds ([33 x i8]* @"System.ObjectDisposedException String Name", i32 0, i32 0),
    i8* bitcast ({ i8*, i8*, i8* }* @"System.SystemException Info" to i8*)
}
; RTTI pointer
@"System.ObjectDisposedException Pointer String Name" = linkonce_odr constant [34 x i8] c"P30System.ObjectDisposedException\00"
@"System.ObjectDisposedException Pointer Info" = linkonce_odr unnamed_addr constant { i8*, i8*, i32, i8* } {
    i8* bitcast (i8** getelementptr inbounds (i8** @_ZTVN10__cxxabiv119__pointer_type_infoE, i32 2) to i8*),
    i8* getelementptr inbounds ([34 x i8]* @"System.ObjectDisposedException Pointer String Name", i32 0, i32 0),
    i32 0,
    i8* bitcast ({ i8*, i8*, i8* }* @"System.ObjectDisposedException Info" to i8*)
}

; Init Object method
define void @"Void System.ObjectDisposedException..init()"(%"System.ObjectDisposedException"* %arg.this) #76 {
    %this = alloca %"System.ObjectDisposedException"*, align 4
    store %"System.ObjectDisposedException"* %arg.this, %"System.ObjectDisposedException"** %this, align 4
    %.r1 = load %"System.ObjectDisposedException"** %this, align 4
    ; set virtual table
    %.r2 = bitcast %"System.ObjectDisposedException"* %.r1 to i8***
    store i8** getelementptr inbounds ([8 x i8*]* @"System.ObjectDisposedException Virtual Table", i64 0, i64 2), i8*** %.r2
    ret void
}



%"System.ObsoleteAttribute" = type {
    %"System.Attribute",
    %"System.String"*,
    i1
}

@"System.ObsoleteAttribute Virtual Table" = linkonce_odr unnamed_addr constant [6 x i8*] [
    i8* null,
    i8* bitcast ({ i8*, i8*, i8* }* @"System.ObsoleteAttribute Info" to i8*),
    i8* bitcast (%"System.String"* (%"System.Object"*)* @"System.String System.Object.ToString()" to i8*),
    i8* bitcast (i1 (%"System.Object"*, %"System.Object"*)* @"Boolean System.Object.Equals(System.Object)" to i8*),
    i8* bitcast (i32 (%"System.Object"*)* @"Int32 System.Object.GetHashCode()" to i8*),
    i8* bitcast (void (%"System.Object"*)* @"Void System.Object.Finalize()" to i8*)
]

; RTTI class
@"System.ObsoleteAttribute String Name" = linkonce_odr constant [27 x i8] c"24System.ObsoleteAttribute\00"
@"System.ObsoleteAttribute Info" = linkonce_odr unnamed_addr constant { i8*, i8*, i8* } {
    i8* bitcast (i8** getelementptr inbounds (i8** @_ZTVN10__cxxabiv120__si_class_type_infoE, i32 2) to i8*),
    i8* getelementptr inbounds ([27 x i8]* @"System.ObsoleteAttribute String Name", i32 0, i32 0),
    i8* bitcast ({ i8*, i8*, i8* }* @"System.Attribute Info" to i8*)
}
; RTTI pointer
@"System.ObsoleteAttribute Pointer String Name" = linkonce_odr constant [28 x i8] c"P24System.ObsoleteAttribute\00"
@"System.ObsoleteAttribute Pointer Info" = linkonce_odr unnamed_addr constant { i8*, i8*, i32, i8* } {
    i8* bitcast (i8** getelementptr inbounds (i8** @_ZTVN10__cxxabiv119__pointer_type_infoE, i32 2) to i8*),
    i8* getelementptr inbounds ([28 x i8]* @"System.ObsoleteAttribute Pointer String Name", i32 0, i32 0),
    i32 0,
    i8* bitcast ({ i8*, i8*, i8* }* @"System.ObsoleteAttribute Info" to i8*)
}

; Init Object method
define void @"Void System.ObsoleteAttribute..init()"(%"System.ObsoleteAttribute"* %arg.this) #77 {
    %this = alloca %"System.ObsoleteAttribute"*, align 4
    store %"System.ObsoleteAttribute"* %arg.this, %"System.ObsoleteAttribute"** %this, align 4
    %.r1 = load %"System.ObsoleteAttribute"** %this, align 4
    ; set virtual table
    %.r2 = bitcast %"System.ObsoleteAttribute"* %.r1 to i8***
    store i8** getelementptr inbounds ([6 x i8*]* @"System.ObsoleteAttribute Virtual Table", i64 0, i64 2), i8*** %.r2
    ret void
}



%"System.OutOfMemoryException" = type {
    %"System.SystemException"
}

@"System.OutOfMemoryException Virtual Table" = linkonce_odr unnamed_addr constant [8 x i8*] [
    i8* null,
    i8* bitcast ({ i8*, i8*, i8* }* @"System.OutOfMemoryException Info" to i8*),
    i8* bitcast (%"System.String"* (%"System.Exception"*)* @"System.String System.Exception.ToString()" to i8*),
    i8* bitcast (i1 (%"System.Object"*, %"System.Object"*)* @"Boolean System.Object.Equals(System.Object)" to i8*),
    i8* bitcast (i32 (%"System.Object"*)* @"Int32 System.Object.GetHashCode()" to i8*),
    i8* bitcast (void (%"System.Object"*)* @"Void System.Object.Finalize()" to i8*),
    i8* bitcast (%"System.String"* (%"System.Exception"*)* @"System.String System.Exception.get_Message()" to i8*),
    i8* bitcast (%"System.String"* (%"System.Exception"*)* @"System.String System.Exception.get_StackTrace()" to i8*)
]

; RTTI class
@"System.OutOfMemoryException String Name" = linkonce_odr constant [30 x i8] c"27System.OutOfMemoryException\00"
@"System.OutOfMemoryException Info" = linkonce_odr unnamed_addr constant { i8*, i8*, i8* } {
    i8* bitcast (i8** getelementptr inbounds (i8** @_ZTVN10__cxxabiv120__si_class_type_infoE, i32 2) to i8*),
    i8* getelementptr inbounds ([30 x i8]* @"System.OutOfMemoryException String Name", i32 0, i32 0),
    i8* bitcast ({ i8*, i8*, i8* }* @"System.SystemException Info" to i8*)
}
; RTTI pointer
@"System.OutOfMemoryException Pointer String Name" = linkonce_odr constant [31 x i8] c"P27System.OutOfMemoryException\00"
@"System.OutOfMemoryException Pointer Info" = linkonce_odr unnamed_addr constant { i8*, i8*, i32, i8* } {
    i8* bitcast (i8** getelementptr inbounds (i8** @_ZTVN10__cxxabiv119__pointer_type_infoE, i32 2) to i8*),
    i8* getelementptr inbounds ([31 x i8]* @"System.OutOfMemoryException Pointer String Name", i32 0, i32 0),
    i32 0,
    i8* bitcast ({ i8*, i8*, i8* }* @"System.OutOfMemoryException Info" to i8*)
}

; Init Object method
define void @"Void System.OutOfMemoryException..init()"(%"System.OutOfMemoryException"* %arg.this) #78 {
    %this = alloca %"System.OutOfMemoryException"*, align 4
    store %"System.OutOfMemoryException"* %arg.this, %"System.OutOfMemoryException"** %this, align 4
    %.r1 = load %"System.OutOfMemoryException"** %this, align 4
    ; set virtual table
    %.r2 = bitcast %"System.OutOfMemoryException"* %.r1 to i8***
    store i8** getelementptr inbounds ([8 x i8*]* @"System.OutOfMemoryException Virtual Table", i64 0, i64 2), i8*** %.r2
    ret void
}



%"System.ParamArrayAttribute" = type {
    %"System.Attribute"
}

@"System.ParamArrayAttribute Virtual Table" = linkonce_odr unnamed_addr constant [6 x i8*] [
    i8* null,
    i8* bitcast ({ i8*, i8*, i8* }* @"System.ParamArrayAttribute Info" to i8*),
    i8* bitcast (%"System.String"* (%"System.Object"*)* @"System.String System.Object.ToString()" to i8*),
    i8* bitcast (i1 (%"System.Object"*, %"System.Object"*)* @"Boolean System.Object.Equals(System.Object)" to i8*),
    i8* bitcast (i32 (%"System.Object"*)* @"Int32 System.Object.GetHashCode()" to i8*),
    i8* bitcast (void (%"System.Object"*)* @"Void System.Object.Finalize()" to i8*)
]

; RTTI class
@"System.ParamArrayAttribute String Name" = linkonce_odr constant [29 x i8] c"26System.ParamArrayAttribute\00"
@"System.ParamArrayAttribute Info" = linkonce_odr unnamed_addr constant { i8*, i8*, i8* } {
    i8* bitcast (i8** getelementptr inbounds (i8** @_ZTVN10__cxxabiv120__si_class_type_infoE, i32 2) to i8*),
    i8* getelementptr inbounds ([29 x i8]* @"System.ParamArrayAttribute String Name", i32 0, i32 0),
    i8* bitcast ({ i8*, i8*, i8* }* @"System.Attribute Info" to i8*)
}
; RTTI pointer
@"System.ParamArrayAttribute Pointer String Name" = linkonce_odr constant [30 x i8] c"P26System.ParamArrayAttribute\00"
@"System.ParamArrayAttribute Pointer Info" = linkonce_odr unnamed_addr constant { i8*, i8*, i32, i8* } {
    i8* bitcast (i8** getelementptr inbounds (i8** @_ZTVN10__cxxabiv119__pointer_type_infoE, i32 2) to i8*),
    i8* getelementptr inbounds ([30 x i8]* @"System.ParamArrayAttribute Pointer String Name", i32 0, i32 0),
    i32 0,
    i8* bitcast ({ i8*, i8*, i8* }* @"System.ParamArrayAttribute Info" to i8*)
}

; Init Object method
define void @"Void System.ParamArrayAttribute..init()"(%"System.ParamArrayAttribute"* %arg.this) #79 {
    %this = alloca %"System.ParamArrayAttribute"*, align 4
    store %"System.ParamArrayAttribute"* %arg.this, %"System.ParamArrayAttribute"** %this, align 4
    %.r1 = load %"System.ParamArrayAttribute"** %this, align 4
    ; set virtual table
    %.r2 = bitcast %"System.ParamArrayAttribute"* %.r1 to i8***
    store i8** getelementptr inbounds ([6 x i8*]* @"System.ParamArrayAttribute Virtual Table", i64 0, i64 2), i8*** %.r2
    ret void
}



%"System.Random" = type {
    %"System.Object",
    %"System.Object"*
}

@"System.Random Virtual Table" = linkonce_odr unnamed_addr constant [10 x i8*] [
    i8* null,
    i8* bitcast ({ i8*, i8*, i8* }* @"System.Random Info" to i8*),
    i8* bitcast (%"System.String"* (%"System.Object"*)* @"System.String System.Object.ToString()" to i8*),
    i8* bitcast (i1 (%"System.Object"*, %"System.Object"*)* @"Boolean System.Object.Equals(System.Object)" to i8*),
    i8* bitcast (i32 (%"System.Object"*)* @"Int32 System.Object.GetHashCode()" to i8*),
    i8* bitcast (void (%"System.Object"*)* @"Void System.Object.Finalize()" to i8*),
    i8* bitcast (i32 (%"System.Random"*)* @"Int32 System.Random.Next()" to i8*),
    i8* bitcast (i32 (%"System.Random"*, i32)* @"Int32 System.Random.Next(Int32)" to i8*),
    i8* bitcast (double (%"System.Random"*)* @"Double System.Random.NextDouble()" to i8*),
    i8* bitcast (void (%"System.Random"*, i8*)* @"Void System.Random.NextBytes(Byte[])" to i8*)
]

; RTTI class
@"System.Random String Name" = linkonce_odr constant [16 x i8] c"13System.Random\00"
@"System.Random Info" = linkonce_odr unnamed_addr constant { i8*, i8*, i8* } {
    i8* bitcast (i8** getelementptr inbounds (i8** @_ZTVN10__cxxabiv120__si_class_type_infoE, i32 2) to i8*),
    i8* getelementptr inbounds ([16 x i8]* @"System.Random String Name", i32 0, i32 0),
    i8* bitcast ({ i8*, i8* }* @"System.Object Info" to i8*)
}
; RTTI pointer
@"System.Random Pointer String Name" = linkonce_odr constant [17 x i8] c"P13System.Random\00"
@"System.Random Pointer Info" = linkonce_odr unnamed_addr constant { i8*, i8*, i32, i8* } {
    i8* bitcast (i8** getelementptr inbounds (i8** @_ZTVN10__cxxabiv119__pointer_type_infoE, i32 2) to i8*),
    i8* getelementptr inbounds ([17 x i8]* @"System.Random Pointer String Name", i32 0, i32 0),
    i32 0,
    i8* bitcast ({ i8*, i8*, i8* }* @"System.Random Info" to i8*)
}

; Init Object method
define void @"Void System.Random..init()"(%"System.Random"* %arg.this) #80 {
    %this = alloca %"System.Random"*, align 4
    store %"System.Random"* %arg.this, %"System.Random"** %this, align 4
    %.r1 = load %"System.Random"** %this, align 4
    ; set virtual table
    %.r2 = bitcast %"System.Random"* %.r1 to i8***
    store i8** getelementptr inbounds ([10 x i8*]* @"System.Random Virtual Table", i64 0, i64 2), i8*** %.r2
    ret void
}



%"System.RuntimeArgumentHandle" = type {
    %"System.ValueType"
}

@"System.RuntimeArgumentHandle Virtual Table" = linkonce_odr unnamed_addr constant [6 x i8*] [
    i8* null,
    i8* bitcast ({ i8*, i8*, i8* }* @"System.RuntimeArgumentHandle Info" to i8*),
    i8* bitcast (%"System.String"* (%"System.ValueType"*)* @"System.String System.ValueType.ToString()" to i8*),
    i8* bitcast (i1 (%"System.ValueType"*, %"System.Object"*)* @"Boolean System.ValueType.Equals(System.Object)" to i8*),
    i8* bitcast (i32 (%"System.ValueType"*)* @"Int32 System.ValueType.GetHashCode()" to i8*),
    i8* bitcast (void (%"System.Object"*)* @"Void System.Object.Finalize()" to i8*)
]

; RTTI class
@"System.RuntimeArgumentHandle String Name" = linkonce_odr constant [31 x i8] c"28System.RuntimeArgumentHandle\00"
@"System.RuntimeArgumentHandle Info" = linkonce_odr unnamed_addr constant { i8*, i8*, i8* } {
    i8* bitcast (i8** getelementptr inbounds (i8** @_ZTVN10__cxxabiv120__si_class_type_infoE, i32 2) to i8*),
    i8* getelementptr inbounds ([31 x i8]* @"System.RuntimeArgumentHandle String Name", i32 0, i32 0),
    i8* bitcast ({ i8*, i8*, i8* }* @"System.ValueType Info" to i8*)
}
; RTTI pointer
@"System.RuntimeArgumentHandle Pointer String Name" = linkonce_odr constant [32 x i8] c"P28System.RuntimeArgumentHandle\00"
@"System.RuntimeArgumentHandle Pointer Info" = linkonce_odr unnamed_addr constant { i8*, i8*, i32, i8* } {
    i8* bitcast (i8** getelementptr inbounds (i8** @_ZTVN10__cxxabiv119__pointer_type_infoE, i32 2) to i8*),
    i8* getelementptr inbounds ([32 x i8]* @"System.RuntimeArgumentHandle Pointer String Name", i32 0, i32 0),
    i32 0,
    i8* bitcast ({ i8*, i8*, i8* }* @"System.RuntimeArgumentHandle Info" to i8*)
}

; Init Object method
define void @"Void System.RuntimeArgumentHandle..init()"(%"System.RuntimeArgumentHandle"* %arg.this) #81 {
    %this = alloca %"System.RuntimeArgumentHandle"*, align 4
    store %"System.RuntimeArgumentHandle"* %arg.this, %"System.RuntimeArgumentHandle"** %this, align 4
    %.r1 = load %"System.RuntimeArgumentHandle"** %this, align 4
    ; set virtual table
    %.r2 = bitcast %"System.RuntimeArgumentHandle"* %.r1 to i8***
    store i8** getelementptr inbounds ([6 x i8*]* @"System.RuntimeArgumentHandle Virtual Table", i64 0, i64 2), i8*** %.r2
    ret void
}

; Box method
define %"System.RuntimeArgumentHandle"* @"System.RuntimeArgumentHandle System.RuntimeArgumentHandle..box(System.RuntimeArgumentHandle)"(%"System.RuntimeArgumentHandle"* byval align 4 %value) #82 {
    ; Boxing
    ; New obj
    %.r1 = call i8* @_Znwj(i32 4)
    call void @llvm.memset.p0i8.i32(i8* %.r1, i8 0, i32 4, i32 4, i1 false)
    %.r2 = bitcast i8* %.r1 to %"System.RuntimeArgumentHandle"*
    ; end of new obj
    ; Copy data
    %.r3 = bitcast %"System.RuntimeArgumentHandle"* %.r2 to i8*
    %.r4 = bitcast %"System.RuntimeArgumentHandle"* %value to i8*
    call void @llvm.memcpy.p0i8.p0i8.i32(i8* %.r3, i8* %.r4, i32 4, i32 4, i1 false)
    ; call Init Object method
    call void @"Void System.RuntimeArgumentHandle..init()"(%"System.RuntimeArgumentHandle"* %.r2)
    ; End of Copy data
    ret %"System.RuntimeArgumentHandle"* %.r2
}

; Unbox method
define void @"System.RuntimeArgumentHandle System.RuntimeArgumentHandle..unbox()"(%"System.RuntimeArgumentHandle"* noalias sret %agg.result, %"System.RuntimeArgumentHandle"* %arg.this) #83 {
    %this = alloca %"System.RuntimeArgumentHandle"*, align 4
    store %"System.RuntimeArgumentHandle"* %arg.this, %"System.RuntimeArgumentHandle"** %this, align 4
    %.r1 = load %"System.RuntimeArgumentHandle"** %this, align 4
    ; Unboxing
    ; Copy data
    %.r2 = bitcast %"System.RuntimeArgumentHandle"* %agg.result to i8*
    %.r3 = bitcast %"System.RuntimeArgumentHandle"* %.r1 to i8*
    call void @llvm.memcpy.p0i8.p0i8.i32(i8* %.r2, i8* %.r3, i32 4, i32 4, i1 false)
    ; End of Copy data
    ret  void
}



%"System.RuntimeFieldHandle" = type {
    %"System.ValueType"
}

@"System.RuntimeFieldHandle Virtual Table" = linkonce_odr unnamed_addr constant [6 x i8*] [
    i8* null,
    i8* bitcast ({ i8*, i8*, i8* }* @"System.RuntimeFieldHandle Info" to i8*),
    i8* bitcast (%"System.String"* (%"System.ValueType"*)* @"System.String System.ValueType.ToString()" to i8*),
    i8* bitcast (i1 (%"System.ValueType"*, %"System.Object"*)* @"Boolean System.ValueType.Equals(System.Object)" to i8*),
    i8* bitcast (i32 (%"System.ValueType"*)* @"Int32 System.ValueType.GetHashCode()" to i8*),
    i8* bitcast (void (%"System.Object"*)* @"Void System.Object.Finalize()" to i8*)
]

; RTTI class
@"System.RuntimeFieldHandle String Name" = linkonce_odr constant [28 x i8] c"25System.RuntimeFieldHandle\00"
@"System.RuntimeFieldHandle Info" = linkonce_odr unnamed_addr constant { i8*, i8*, i8* } {
    i8* bitcast (i8** getelementptr inbounds (i8** @_ZTVN10__cxxabiv120__si_class_type_infoE, i32 2) to i8*),
    i8* getelementptr inbounds ([28 x i8]* @"System.RuntimeFieldHandle String Name", i32 0, i32 0),
    i8* bitcast ({ i8*, i8*, i8* }* @"System.ValueType Info" to i8*)
}
; RTTI pointer
@"System.RuntimeFieldHandle Pointer String Name" = linkonce_odr constant [29 x i8] c"P25System.RuntimeFieldHandle\00"
@"System.RuntimeFieldHandle Pointer Info" = linkonce_odr unnamed_addr constant { i8*, i8*, i32, i8* } {
    i8* bitcast (i8** getelementptr inbounds (i8** @_ZTVN10__cxxabiv119__pointer_type_infoE, i32 2) to i8*),
    i8* getelementptr inbounds ([29 x i8]* @"System.RuntimeFieldHandle Pointer String Name", i32 0, i32 0),
    i32 0,
    i8* bitcast ({ i8*, i8*, i8* }* @"System.RuntimeFieldHandle Info" to i8*)
}

; Init Object method
define void @"Void System.RuntimeFieldHandle..init()"(%"System.RuntimeFieldHandle"* %arg.this) #84 {
    %this = alloca %"System.RuntimeFieldHandle"*, align 4
    store %"System.RuntimeFieldHandle"* %arg.this, %"System.RuntimeFieldHandle"** %this, align 4
    %.r1 = load %"System.RuntimeFieldHandle"** %this, align 4
    ; set virtual table
    %.r2 = bitcast %"System.RuntimeFieldHandle"* %.r1 to i8***
    store i8** getelementptr inbounds ([6 x i8*]* @"System.RuntimeFieldHandle Virtual Table", i64 0, i64 2), i8*** %.r2
    ret void
}

; Box method
define %"System.RuntimeFieldHandle"* @"System.RuntimeFieldHandle System.RuntimeFieldHandle..box(System.RuntimeFieldHandle)"(%"System.RuntimeFieldHandle"* byval align 4 %value) #85 {
    ; Boxing
    ; New obj
    %.r1 = call i8* @_Znwj(i32 4)
    call void @llvm.memset.p0i8.i32(i8* %.r1, i8 0, i32 4, i32 4, i1 false)
    %.r2 = bitcast i8* %.r1 to %"System.RuntimeFieldHandle"*
    ; end of new obj
    ; Copy data
    %.r3 = bitcast %"System.RuntimeFieldHandle"* %.r2 to i8*
    %.r4 = bitcast %"System.RuntimeFieldHandle"* %value to i8*
    call void @llvm.memcpy.p0i8.p0i8.i32(i8* %.r3, i8* %.r4, i32 4, i32 4, i1 false)
    ; call Init Object method
    call void @"Void System.RuntimeFieldHandle..init()"(%"System.RuntimeFieldHandle"* %.r2)
    ; End of Copy data
    ret %"System.RuntimeFieldHandle"* %.r2
}

; Unbox method
define void @"System.RuntimeFieldHandle System.RuntimeFieldHandle..unbox()"(%"System.RuntimeFieldHandle"* noalias sret %agg.result, %"System.RuntimeFieldHandle"* %arg.this) #86 {
    %this = alloca %"System.RuntimeFieldHandle"*, align 4
    store %"System.RuntimeFieldHandle"* %arg.this, %"System.RuntimeFieldHandle"** %this, align 4
    %.r1 = load %"System.RuntimeFieldHandle"** %this, align 4
    ; Unboxing
    ; Copy data
    %.r2 = bitcast %"System.RuntimeFieldHandle"* %agg.result to i8*
    %.r3 = bitcast %"System.RuntimeFieldHandle"* %.r1 to i8*
    call void @llvm.memcpy.p0i8.p0i8.i32(i8* %.r2, i8* %.r3, i32 4, i32 4, i1 false)
    ; End of Copy data
    ret  void
}



%"System.RuntimeMethodHandle" = type {
    %"System.ValueType"
}

@"System.RuntimeMethodHandle Virtual Table" = linkonce_odr unnamed_addr constant [6 x i8*] [
    i8* null,
    i8* bitcast ({ i8*, i8*, i8* }* @"System.RuntimeMethodHandle Info" to i8*),
    i8* bitcast (%"System.String"* (%"System.ValueType"*)* @"System.String System.ValueType.ToString()" to i8*),
    i8* bitcast (i1 (%"System.ValueType"*, %"System.Object"*)* @"Boolean System.ValueType.Equals(System.Object)" to i8*),
    i8* bitcast (i32 (%"System.ValueType"*)* @"Int32 System.ValueType.GetHashCode()" to i8*),
    i8* bitcast (void (%"System.Object"*)* @"Void System.Object.Finalize()" to i8*)
]

; RTTI class
@"System.RuntimeMethodHandle String Name" = linkonce_odr constant [29 x i8] c"26System.RuntimeMethodHandle\00"
@"System.RuntimeMethodHandle Info" = linkonce_odr unnamed_addr constant { i8*, i8*, i8* } {
    i8* bitcast (i8** getelementptr inbounds (i8** @_ZTVN10__cxxabiv120__si_class_type_infoE, i32 2) to i8*),
    i8* getelementptr inbounds ([29 x i8]* @"System.RuntimeMethodHandle String Name", i32 0, i32 0),
    i8* bitcast ({ i8*, i8*, i8* }* @"System.ValueType Info" to i8*)
}
; RTTI pointer
@"System.RuntimeMethodHandle Pointer String Name" = linkonce_odr constant [30 x i8] c"P26System.RuntimeMethodHandle\00"
@"System.RuntimeMethodHandle Pointer Info" = linkonce_odr unnamed_addr constant { i8*, i8*, i32, i8* } {
    i8* bitcast (i8** getelementptr inbounds (i8** @_ZTVN10__cxxabiv119__pointer_type_infoE, i32 2) to i8*),
    i8* getelementptr inbounds ([30 x i8]* @"System.RuntimeMethodHandle Pointer String Name", i32 0, i32 0),
    i32 0,
    i8* bitcast ({ i8*, i8*, i8* }* @"System.RuntimeMethodHandle Info" to i8*)
}

; Init Object method
define void @"Void System.RuntimeMethodHandle..init()"(%"System.RuntimeMethodHandle"* %arg.this) #87 {
    %this = alloca %"System.RuntimeMethodHandle"*, align 4
    store %"System.RuntimeMethodHandle"* %arg.this, %"System.RuntimeMethodHandle"** %this, align 4
    %.r1 = load %"System.RuntimeMethodHandle"** %this, align 4
    ; set virtual table
    %.r2 = bitcast %"System.RuntimeMethodHandle"* %.r1 to i8***
    store i8** getelementptr inbounds ([6 x i8*]* @"System.RuntimeMethodHandle Virtual Table", i64 0, i64 2), i8*** %.r2
    ret void
}

; Box method
define %"System.RuntimeMethodHandle"* @"System.RuntimeMethodHandle System.RuntimeMethodHandle..box(System.RuntimeMethodHandle)"(%"System.RuntimeMethodHandle"* byval align 4 %value) #88 {
    ; Boxing
    ; New obj
    %.r1 = call i8* @_Znwj(i32 4)
    call void @llvm.memset.p0i8.i32(i8* %.r1, i8 0, i32 4, i32 4, i1 false)
    %.r2 = bitcast i8* %.r1 to %"System.RuntimeMethodHandle"*
    ; end of new obj
    ; Copy data
    %.r3 = bitcast %"System.RuntimeMethodHandle"* %.r2 to i8*
    %.r4 = bitcast %"System.RuntimeMethodHandle"* %value to i8*
    call void @llvm.memcpy.p0i8.p0i8.i32(i8* %.r3, i8* %.r4, i32 4, i32 4, i1 false)
    ; call Init Object method
    call void @"Void System.RuntimeMethodHandle..init()"(%"System.RuntimeMethodHandle"* %.r2)
    ; End of Copy data
    ret %"System.RuntimeMethodHandle"* %.r2
}

; Unbox method
define void @"System.RuntimeMethodHandle System.RuntimeMethodHandle..unbox()"(%"System.RuntimeMethodHandle"* noalias sret %agg.result, %"System.RuntimeMethodHandle"* %arg.this) #89 {
    %this = alloca %"System.RuntimeMethodHandle"*, align 4
    store %"System.RuntimeMethodHandle"* %arg.this, %"System.RuntimeMethodHandle"** %this, align 4
    %.r1 = load %"System.RuntimeMethodHandle"** %this, align 4
    ; Unboxing
    ; Copy data
    %.r2 = bitcast %"System.RuntimeMethodHandle"* %agg.result to i8*
    %.r3 = bitcast %"System.RuntimeMethodHandle"* %.r1 to i8*
    call void @llvm.memcpy.p0i8.p0i8.i32(i8* %.r2, i8* %.r3, i32 4, i32 4, i1 false)
    ; End of Copy data
    ret  void
}



%"System.RuntimeTypeHandle" = type {
    %"System.ValueType"
}

@"System.RuntimeTypeHandle Virtual Table" = linkonce_odr unnamed_addr constant [6 x i8*] [
    i8* null,
    i8* bitcast ({ i8*, i8*, i8* }* @"System.RuntimeTypeHandle Info" to i8*),
    i8* bitcast (%"System.String"* (%"System.ValueType"*)* @"System.String System.ValueType.ToString()" to i8*),
    i8* bitcast (i1 (%"System.ValueType"*, %"System.Object"*)* @"Boolean System.ValueType.Equals(System.Object)" to i8*),
    i8* bitcast (i32 (%"System.ValueType"*)* @"Int32 System.ValueType.GetHashCode()" to i8*),
    i8* bitcast (void (%"System.Object"*)* @"Void System.Object.Finalize()" to i8*)
]

; RTTI class
@"System.RuntimeTypeHandle String Name" = linkonce_odr constant [27 x i8] c"24System.RuntimeTypeHandle\00"
@"System.RuntimeTypeHandle Info" = linkonce_odr unnamed_addr constant { i8*, i8*, i8* } {
    i8* bitcast (i8** getelementptr inbounds (i8** @_ZTVN10__cxxabiv120__si_class_type_infoE, i32 2) to i8*),
    i8* getelementptr inbounds ([27 x i8]* @"System.RuntimeTypeHandle String Name", i32 0, i32 0),
    i8* bitcast ({ i8*, i8*, i8* }* @"System.ValueType Info" to i8*)
}
; RTTI pointer
@"System.RuntimeTypeHandle Pointer String Name" = linkonce_odr constant [28 x i8] c"P24System.RuntimeTypeHandle\00"
@"System.RuntimeTypeHandle Pointer Info" = linkonce_odr unnamed_addr constant { i8*, i8*, i32, i8* } {
    i8* bitcast (i8** getelementptr inbounds (i8** @_ZTVN10__cxxabiv119__pointer_type_infoE, i32 2) to i8*),
    i8* getelementptr inbounds ([28 x i8]* @"System.RuntimeTypeHandle Pointer String Name", i32 0, i32 0),
    i32 0,
    i8* bitcast ({ i8*, i8*, i8* }* @"System.RuntimeTypeHandle Info" to i8*)
}

; Init Object method
define void @"Void System.RuntimeTypeHandle..init()"(%"System.RuntimeTypeHandle"* %arg.this) #90 {
    %this = alloca %"System.RuntimeTypeHandle"*, align 4
    store %"System.RuntimeTypeHandle"* %arg.this, %"System.RuntimeTypeHandle"** %this, align 4
    %.r1 = load %"System.RuntimeTypeHandle"** %this, align 4
    ; set virtual table
    %.r2 = bitcast %"System.RuntimeTypeHandle"* %.r1 to i8***
    store i8** getelementptr inbounds ([6 x i8*]* @"System.RuntimeTypeHandle Virtual Table", i64 0, i64 2), i8*** %.r2
    ret void
}

; Box method
define %"System.RuntimeTypeHandle"* @"System.RuntimeTypeHandle System.RuntimeTypeHandle..box(System.RuntimeTypeHandle)"(%"System.RuntimeTypeHandle"* byval align 4 %value) #91 {
    ; Boxing
    ; New obj
    %.r1 = call i8* @_Znwj(i32 4)
    call void @llvm.memset.p0i8.i32(i8* %.r1, i8 0, i32 4, i32 4, i1 false)
    %.r2 = bitcast i8* %.r1 to %"System.RuntimeTypeHandle"*
    ; end of new obj
    ; Copy data
    %.r3 = bitcast %"System.RuntimeTypeHandle"* %.r2 to i8*
    %.r4 = bitcast %"System.RuntimeTypeHandle"* %value to i8*
    call void @llvm.memcpy.p0i8.p0i8.i32(i8* %.r3, i8* %.r4, i32 4, i32 4, i1 false)
    ; call Init Object method
    call void @"Void System.RuntimeTypeHandle..init()"(%"System.RuntimeTypeHandle"* %.r2)
    ; End of Copy data
    ret %"System.RuntimeTypeHandle"* %.r2
}

; Unbox method
define void @"System.RuntimeTypeHandle System.RuntimeTypeHandle..unbox()"(%"System.RuntimeTypeHandle"* noalias sret %agg.result, %"System.RuntimeTypeHandle"* %arg.this) #92 {
    %this = alloca %"System.RuntimeTypeHandle"*, align 4
    store %"System.RuntimeTypeHandle"* %arg.this, %"System.RuntimeTypeHandle"** %this, align 4
    %.r1 = load %"System.RuntimeTypeHandle"** %this, align 4
    ; Unboxing
    ; Copy data
    %.r2 = bitcast %"System.RuntimeTypeHandle"* %agg.result to i8*
    %.r3 = bitcast %"System.RuntimeTypeHandle"* %.r1 to i8*
    call void @llvm.memcpy.p0i8.p0i8.i32(i8* %.r2, i8* %.r3, i32 4, i32 4, i1 false)
    ; End of Copy data
    ret  void
}



%"System.SByte" = type {
    %"System.ValueType",
    i8
}

@"System.SByte Virtual Table" = linkonce_odr unnamed_addr constant [6 x i8*] [
    i8* null,
    i8* bitcast ({ i8*, i8*, i8* }* @"System.SByte Info" to i8*),
    i8* bitcast (%"System.String"* (%"System.SByte"*)* @"System.String System.SByte.ToString()" to i8*),
    i8* bitcast (i1 (%"System.ValueType"*, %"System.Object"*)* @"Boolean System.ValueType.Equals(System.Object)" to i8*),
    i8* bitcast (i32 (%"System.ValueType"*)* @"Int32 System.ValueType.GetHashCode()" to i8*),
    i8* bitcast (void (%"System.Object"*)* @"Void System.Object.Finalize()" to i8*)
]

; RTTI class
@"System.SByte String Name" = linkonce_odr constant [15 x i8] c"12System.SByte\00"
@"System.SByte Info" = linkonce_odr unnamed_addr constant { i8*, i8*, i8* } {
    i8* bitcast (i8** getelementptr inbounds (i8** @_ZTVN10__cxxabiv120__si_class_type_infoE, i32 2) to i8*),
    i8* getelementptr inbounds ([15 x i8]* @"System.SByte String Name", i32 0, i32 0),
    i8* bitcast ({ i8*, i8*, i8* }* @"System.ValueType Info" to i8*)
}
; RTTI pointer
@"System.SByte Pointer String Name" = linkonce_odr constant [16 x i8] c"P12System.SByte\00"
@"System.SByte Pointer Info" = linkonce_odr unnamed_addr constant { i8*, i8*, i32, i8* } {
    i8* bitcast (i8** getelementptr inbounds (i8** @_ZTVN10__cxxabiv119__pointer_type_infoE, i32 2) to i8*),
    i8* getelementptr inbounds ([16 x i8]* @"System.SByte Pointer String Name", i32 0, i32 0),
    i32 0,
    i8* bitcast ({ i8*, i8*, i8* }* @"System.SByte Info" to i8*)
}

; Init Object method
define void @"Void System.SByte..init()"(%"System.SByte"* %arg.this) #93 {
    %this = alloca %"System.SByte"*, align 4
    store %"System.SByte"* %arg.this, %"System.SByte"** %this, align 4
    %.r1 = load %"System.SByte"** %this, align 4
    ; set virtual table
    %.r2 = bitcast %"System.SByte"* %.r1 to i8***
    store i8** getelementptr inbounds ([6 x i8*]* @"System.SByte Virtual Table", i64 0, i64 2), i8*** %.r2
    ret void
}

; Box method
define %"System.SByte"* @"System.SByte System.SByte..box(SByte)"(i8 %arg.value) #94 {
    %value = alloca i8, align 4
    store i8 %arg.value, i8* %value, align 4
    %.r1 = load i8* %value, align 4
    ; Boxing
    ; New obj
    %.r2 = call i8* @_Znwj(i32 5)
    call void @llvm.memset.p0i8.i32(i8* %.r2, i8 0, i32 5, i32 4, i1 false)
    %.r3 = bitcast i8* %.r2 to %"System.SByte"*
    ; call Init Object method
    call void @"Void System.SByte..init()"(%"System.SByte"* %.r3)
    ; end of new obj
    ; Copy data
    %.r4 = getelementptr inbounds %"System.SByte"* %.r3, i32 0, i32 1
    store i8 %.r1, i8* %.r4
    ; End of Copy data
    ret %"System.SByte"* %.r3
}

; Unbox method
define i8 @"SByte System.SByte..unbox()"(%"System.SByte"* %arg.this) #95 {
    %this = alloca %"System.SByte"*, align 4
    store %"System.SByte"* %arg.this, %"System.SByte"** %this, align 4
    %.r1 = load %"System.SByte"** %this, align 4
    ; Unboxing
    ; Copy data
    %.r2 = getelementptr inbounds %"System.SByte"* %.r1, i32 0, i32 1
    %.r3 = load i8* %.r2, align 4
    ; End of Copy data
    ret i8 %.r3
}



%"System.SerializableAttribute" = type {
    %"System.Attribute"
}

@"System.SerializableAttribute Virtual Table" = linkonce_odr unnamed_addr constant [6 x i8*] [
    i8* null,
    i8* bitcast ({ i8*, i8*, i8* }* @"System.SerializableAttribute Info" to i8*),
    i8* bitcast (%"System.String"* (%"System.Object"*)* @"System.String System.Object.ToString()" to i8*),
    i8* bitcast (i1 (%"System.Object"*, %"System.Object"*)* @"Boolean System.Object.Equals(System.Object)" to i8*),
    i8* bitcast (i32 (%"System.Object"*)* @"Int32 System.Object.GetHashCode()" to i8*),
    i8* bitcast (void (%"System.Object"*)* @"Void System.Object.Finalize()" to i8*)
]

; RTTI class
@"System.SerializableAttribute String Name" = linkonce_odr constant [31 x i8] c"28System.SerializableAttribute\00"
@"System.SerializableAttribute Info" = linkonce_odr unnamed_addr constant { i8*, i8*, i8* } {
    i8* bitcast (i8** getelementptr inbounds (i8** @_ZTVN10__cxxabiv120__si_class_type_infoE, i32 2) to i8*),
    i8* getelementptr inbounds ([31 x i8]* @"System.SerializableAttribute String Name", i32 0, i32 0),
    i8* bitcast ({ i8*, i8*, i8* }* @"System.Attribute Info" to i8*)
}
; RTTI pointer
@"System.SerializableAttribute Pointer String Name" = linkonce_odr constant [32 x i8] c"P28System.SerializableAttribute\00"
@"System.SerializableAttribute Pointer Info" = linkonce_odr unnamed_addr constant { i8*, i8*, i32, i8* } {
    i8* bitcast (i8** getelementptr inbounds (i8** @_ZTVN10__cxxabiv119__pointer_type_infoE, i32 2) to i8*),
    i8* getelementptr inbounds ([32 x i8]* @"System.SerializableAttribute Pointer String Name", i32 0, i32 0),
    i32 0,
    i8* bitcast ({ i8*, i8*, i8* }* @"System.SerializableAttribute Info" to i8*)
}

; Init Object method
define void @"Void System.SerializableAttribute..init()"(%"System.SerializableAttribute"* %arg.this) #96 {
    %this = alloca %"System.SerializableAttribute"*, align 4
    store %"System.SerializableAttribute"* %arg.this, %"System.SerializableAttribute"** %this, align 4
    %.r1 = load %"System.SerializableAttribute"** %this, align 4
    ; set virtual table
    %.r2 = bitcast %"System.SerializableAttribute"* %.r1 to i8***
    store i8** getelementptr inbounds ([6 x i8*]* @"System.SerializableAttribute Virtual Table", i64 0, i64 2), i8*** %.r2
    ret void
}



%"System.Single" = type {
    %"System.ValueType",
    float
}

@"System.Single Virtual Table" = linkonce_odr unnamed_addr constant [6 x i8*] [
    i8* null,
    i8* bitcast ({ i8*, i8*, i8* }* @"System.Single Info" to i8*),
    i8* bitcast (%"System.String"* (%"System.Single"*)* @"System.String System.Single.ToString()" to i8*),
    i8* bitcast (i1 (%"System.ValueType"*, %"System.Object"*)* @"Boolean System.ValueType.Equals(System.Object)" to i8*),
    i8* bitcast (i32 (%"System.ValueType"*)* @"Int32 System.ValueType.GetHashCode()" to i8*),
    i8* bitcast (void (%"System.Object"*)* @"Void System.Object.Finalize()" to i8*)
]

; RTTI class
@"System.Single String Name" = linkonce_odr constant [16 x i8] c"13System.Single\00"
@"System.Single Info" = linkonce_odr unnamed_addr constant { i8*, i8*, i8* } {
    i8* bitcast (i8** getelementptr inbounds (i8** @_ZTVN10__cxxabiv120__si_class_type_infoE, i32 2) to i8*),
    i8* getelementptr inbounds ([16 x i8]* @"System.Single String Name", i32 0, i32 0),
    i8* bitcast ({ i8*, i8*, i8* }* @"System.ValueType Info" to i8*)
}
; RTTI pointer
@"System.Single Pointer String Name" = linkonce_odr constant [17 x i8] c"P13System.Single\00"
@"System.Single Pointer Info" = linkonce_odr unnamed_addr constant { i8*, i8*, i32, i8* } {
    i8* bitcast (i8** getelementptr inbounds (i8** @_ZTVN10__cxxabiv119__pointer_type_infoE, i32 2) to i8*),
    i8* getelementptr inbounds ([17 x i8]* @"System.Single Pointer String Name", i32 0, i32 0),
    i32 0,
    i8* bitcast ({ i8*, i8*, i8* }* @"System.Single Info" to i8*)
}

; Init Object method
define void @"Void System.Single..init()"(%"System.Single"* %arg.this) #97 {
    %this = alloca %"System.Single"*, align 4
    store %"System.Single"* %arg.this, %"System.Single"** %this, align 4
    %.r1 = load %"System.Single"** %this, align 4
    ; set virtual table
    %.r2 = bitcast %"System.Single"* %.r1 to i8***
    store i8** getelementptr inbounds ([6 x i8*]* @"System.Single Virtual Table", i64 0, i64 2), i8*** %.r2
    ret void
}

; Box method
define %"System.Single"* @"System.Single System.Single..box(Single)"(float %arg.value) #98 {
    %value = alloca float, align 4
    store float %arg.value, float* %value, align 4
    %.r1 = load float* %value, align 4
    ; Boxing
    ; New obj
    %.r2 = call i8* @_Znwj(i32 8)
    call void @llvm.memset.p0i8.i32(i8* %.r2, i8 0, i32 8, i32 4, i1 false)
    %.r3 = bitcast i8* %.r2 to %"System.Single"*
    ; call Init Object method
    call void @"Void System.Single..init()"(%"System.Single"* %.r3)
    ; end of new obj
    ; Copy data
    %.r4 = getelementptr inbounds %"System.Single"* %.r3, i32 0, i32 1
    store float %.r1, float* %.r4
    ; End of Copy data
    ret %"System.Single"* %.r3
}

; Unbox method
define float @"Single System.Single..unbox()"(%"System.Single"* %arg.this) #99 {
    %this = alloca %"System.Single"*, align 4
    store %"System.Single"* %arg.this, %"System.Single"** %this, align 4
    %.r1 = load %"System.Single"** %this, align 4
    ; Unboxing
    ; Copy data
    %.r2 = getelementptr inbounds %"System.Single"* %.r1, i32 0, i32 1
    %.r3 = load float* %.r2, align 4
    ; End of Copy data
    ret float %.r3
}



%"System.String" = type {
    %"System.Object", 
    %"System.IComparable",
    i16*
}
@"System.String.Empty" = global %"System.String"* undef

@"System.String Virtual Table" = linkonce_odr unnamed_addr constant [6 x i8*] [
    i8* null,
    i8* bitcast ({ i8*, i8*, i8* }* @"System.String Info" to i8*),
    i8* bitcast (%"System.String"* (%"System.String"*)* @"System.String System.String.ToString()" to i8*),
    i8* bitcast (i1 (%"System.String"*, %"System.Object"*)* @"Boolean System.String.Equals(System.Object)" to i8*),
    i8* bitcast (i32 (%"System.Object"*)* @"Int32 System.Object.GetHashCode()" to i8*),
    i8* bitcast (void (%"System.Object"*)* @"Void System.Object.Finalize()" to i8*)
]

@"System.String Virtual Table System.IComparable Interface" = linkonce_odr unnamed_addr constant [3 x i8*] [
    i8* inttoptr (i32 -1 to i8*),
    i8* bitcast ({ i8*, i8*, i8* }* @"System.String Info" to i8*),
    i8* bitcast (i32 (%"System.String"*, %"System.Object"*)* @"Int32 System.String.CompareTo(System.Object)" to i8*)
]

; RTTI class
@"System.String String Name" = linkonce_odr constant [16 x i8] c"13System.String\00"
@"System.String Info" = linkonce_odr unnamed_addr constant { i8*, i8*, i8* } {
    i8* bitcast (i8** getelementptr inbounds (i8** @_ZTVN10__cxxabiv120__si_class_type_infoE, i32 2) to i8*),
    i8* getelementptr inbounds ([16 x i8]* @"System.String String Name", i32 0, i32 0),
    i8* bitcast ({ i8*, i8* }* @"System.Object Info" to i8*)
}
; RTTI pointer
@"System.String Pointer String Name" = linkonce_odr constant [17 x i8] c"P13System.String\00"
@"System.String Pointer Info" = linkonce_odr unnamed_addr constant { i8*, i8*, i32, i8* } {
    i8* bitcast (i8** getelementptr inbounds (i8** @_ZTVN10__cxxabiv119__pointer_type_infoE, i32 2) to i8*),
    i8* getelementptr inbounds ([17 x i8]* @"System.String Pointer String Name", i32 0, i32 0),
    i32 0,
    i8* bitcast ({ i8*, i8*, i8* }* @"System.String Info" to i8*)
}

; Init Object method
define void @"Void System.String..init()"(%"System.String"* %arg.this) #100 {
    %this = alloca %"System.String"*, align 4
    store %"System.String"* %arg.this, %"System.String"** %this, align 4
    %.r1 = load %"System.String"** %this, align 4
    ; set virtual table
    %.r2 = bitcast %"System.String"* %.r1 to i8***
    store i8** getelementptr inbounds ([6 x i8*]* @"System.String Virtual Table", i64 0, i64 2), i8*** %.r2
    ; set virtual interface table
    ; Get interface 'System.IComparable' of 'System.String'
    %.r3 = getelementptr inbounds %"System.String"* %.r1, i32 0, i32 1
    %.r4 = bitcast %"System.IComparable"* %.r3 to i8***
    store i8** getelementptr inbounds ([3 x i8*]* @"System.String Virtual Table System.IComparable Interface", i64 0, i64 2), i8*** %.r4
    ret void
}



%"System.STAThreadAttribute" = type {
    %"System.Attribute"
}

@"System.STAThreadAttribute Virtual Table" = linkonce_odr unnamed_addr constant [6 x i8*] [
    i8* null,
    i8* bitcast ({ i8*, i8*, i8* }* @"System.STAThreadAttribute Info" to i8*),
    i8* bitcast (%"System.String"* (%"System.Object"*)* @"System.String System.Object.ToString()" to i8*),
    i8* bitcast (i1 (%"System.Object"*, %"System.Object"*)* @"Boolean System.Object.Equals(System.Object)" to i8*),
    i8* bitcast (i32 (%"System.Object"*)* @"Int32 System.Object.GetHashCode()" to i8*),
    i8* bitcast (void (%"System.Object"*)* @"Void System.Object.Finalize()" to i8*)
]

; RTTI class
@"System.STAThreadAttribute String Name" = linkonce_odr constant [28 x i8] c"25System.STAThreadAttribute\00"
@"System.STAThreadAttribute Info" = linkonce_odr unnamed_addr constant { i8*, i8*, i8* } {
    i8* bitcast (i8** getelementptr inbounds (i8** @_ZTVN10__cxxabiv120__si_class_type_infoE, i32 2) to i8*),
    i8* getelementptr inbounds ([28 x i8]* @"System.STAThreadAttribute String Name", i32 0, i32 0),
    i8* bitcast ({ i8*, i8*, i8* }* @"System.Attribute Info" to i8*)
}
; RTTI pointer
@"System.STAThreadAttribute Pointer String Name" = linkonce_odr constant [29 x i8] c"P25System.STAThreadAttribute\00"
@"System.STAThreadAttribute Pointer Info" = linkonce_odr unnamed_addr constant { i8*, i8*, i32, i8* } {
    i8* bitcast (i8** getelementptr inbounds (i8** @_ZTVN10__cxxabiv119__pointer_type_infoE, i32 2) to i8*),
    i8* getelementptr inbounds ([29 x i8]* @"System.STAThreadAttribute Pointer String Name", i32 0, i32 0),
    i32 0,
    i8* bitcast ({ i8*, i8*, i8* }* @"System.STAThreadAttribute Info" to i8*)
}

; Init Object method
define void @"Void System.STAThreadAttribute..init()"(%"System.STAThreadAttribute"* %arg.this) #101 {
    %this = alloca %"System.STAThreadAttribute"*, align 4
    store %"System.STAThreadAttribute"* %arg.this, %"System.STAThreadAttribute"** %this, align 4
    %.r1 = load %"System.STAThreadAttribute"** %this, align 4
    ; set virtual table
    %.r2 = bitcast %"System.STAThreadAttribute"* %.r1 to i8***
    store i8** getelementptr inbounds ([6 x i8*]* @"System.STAThreadAttribute Virtual Table", i64 0, i64 2), i8*** %.r2
    ret void
}



%"System.MTAThreadAttribute" = type {
    %"System.Attribute"
}

@"System.MTAThreadAttribute Virtual Table" = linkonce_odr unnamed_addr constant [6 x i8*] [
    i8* null,
    i8* bitcast ({ i8*, i8*, i8* }* @"System.MTAThreadAttribute Info" to i8*),
    i8* bitcast (%"System.String"* (%"System.Object"*)* @"System.String System.Object.ToString()" to i8*),
    i8* bitcast (i1 (%"System.Object"*, %"System.Object"*)* @"Boolean System.Object.Equals(System.Object)" to i8*),
    i8* bitcast (i32 (%"System.Object"*)* @"Int32 System.Object.GetHashCode()" to i8*),
    i8* bitcast (void (%"System.Object"*)* @"Void System.Object.Finalize()" to i8*)
]

; RTTI class
@"System.MTAThreadAttribute String Name" = linkonce_odr constant [28 x i8] c"25System.MTAThreadAttribute\00"
@"System.MTAThreadAttribute Info" = linkonce_odr unnamed_addr constant { i8*, i8*, i8* } {
    i8* bitcast (i8** getelementptr inbounds (i8** @_ZTVN10__cxxabiv120__si_class_type_infoE, i32 2) to i8*),
    i8* getelementptr inbounds ([28 x i8]* @"System.MTAThreadAttribute String Name", i32 0, i32 0),
    i8* bitcast ({ i8*, i8*, i8* }* @"System.Attribute Info" to i8*)
}
; RTTI pointer
@"System.MTAThreadAttribute Pointer String Name" = linkonce_odr constant [29 x i8] c"P25System.MTAThreadAttribute\00"
@"System.MTAThreadAttribute Pointer Info" = linkonce_odr unnamed_addr constant { i8*, i8*, i32, i8* } {
    i8* bitcast (i8** getelementptr inbounds (i8** @_ZTVN10__cxxabiv119__pointer_type_infoE, i32 2) to i8*),
    i8* getelementptr inbounds ([29 x i8]* @"System.MTAThreadAttribute Pointer String Name", i32 0, i32 0),
    i32 0,
    i8* bitcast ({ i8*, i8*, i8* }* @"System.MTAThreadAttribute Info" to i8*)
}

; Init Object method
define void @"Void System.MTAThreadAttribute..init()"(%"System.MTAThreadAttribute"* %arg.this) #102 {
    %this = alloca %"System.MTAThreadAttribute"*, align 4
    store %"System.MTAThreadAttribute"* %arg.this, %"System.MTAThreadAttribute"** %this, align 4
    %.r1 = load %"System.MTAThreadAttribute"** %this, align 4
    ; set virtual table
    %.r2 = bitcast %"System.MTAThreadAttribute"* %.r1 to i8***
    store i8** getelementptr inbounds ([6 x i8*]* @"System.MTAThreadAttribute Virtual Table", i64 0, i64 2), i8*** %.r2
    ret void
}



%"System.TimeSpan" = type {
    %"System.ValueType",
    i64
}
@"System.TimeSpan.Zero" = global %"System.TimeSpan" zeroinitializer, align 4
@"System.TimeSpan.MaxValue" = global %"System.TimeSpan" zeroinitializer, align 4
@"System.TimeSpan.MinValue" = global %"System.TimeSpan" zeroinitializer, align 4

@"System.TimeSpan Virtual Table" = linkonce_odr unnamed_addr constant [6 x i8*] [
    i8* null,
    i8* bitcast ({ i8*, i8*, i8* }* @"System.TimeSpan Info" to i8*),
    i8* bitcast (%"System.String"* (%"System.TimeSpan"*)* @"System.String System.TimeSpan.ToString()" to i8*),
    i8* bitcast (i1 (%"System.TimeSpan"*, %"System.Object"*)* @"Boolean System.TimeSpan.Equals(System.Object)" to i8*),
    i8* bitcast (i32 (%"System.ValueType"*)* @"Int32 System.ValueType.GetHashCode()" to i8*),
    i8* bitcast (void (%"System.Object"*)* @"Void System.Object.Finalize()" to i8*)
]

; RTTI class
@"System.TimeSpan String Name" = linkonce_odr constant [18 x i8] c"15System.TimeSpan\00"
@"System.TimeSpan Info" = linkonce_odr unnamed_addr constant { i8*, i8*, i8* } {
    i8* bitcast (i8** getelementptr inbounds (i8** @_ZTVN10__cxxabiv120__si_class_type_infoE, i32 2) to i8*),
    i8* getelementptr inbounds ([18 x i8]* @"System.TimeSpan String Name", i32 0, i32 0),
    i8* bitcast ({ i8*, i8*, i8* }* @"System.ValueType Info" to i8*)
}
; RTTI pointer
@"System.TimeSpan Pointer String Name" = linkonce_odr constant [19 x i8] c"P15System.TimeSpan\00"
@"System.TimeSpan Pointer Info" = linkonce_odr unnamed_addr constant { i8*, i8*, i32, i8* } {
    i8* bitcast (i8** getelementptr inbounds (i8** @_ZTVN10__cxxabiv119__pointer_type_infoE, i32 2) to i8*),
    i8* getelementptr inbounds ([19 x i8]* @"System.TimeSpan Pointer String Name", i32 0, i32 0),
    i32 0,
    i8* bitcast ({ i8*, i8*, i8* }* @"System.TimeSpan Info" to i8*)
}

; Init Object method
define void @"Void System.TimeSpan..init()"(%"System.TimeSpan"* %arg.this) #103 {
    %this = alloca %"System.TimeSpan"*, align 4
    store %"System.TimeSpan"* %arg.this, %"System.TimeSpan"** %this, align 4
    %.r1 = load %"System.TimeSpan"** %this, align 4
    ; set virtual table
    %.r2 = bitcast %"System.TimeSpan"* %.r1 to i8***
    store i8** getelementptr inbounds ([6 x i8*]* @"System.TimeSpan Virtual Table", i64 0, i64 2), i8*** %.r2
    ret void
}

; Box method
define %"System.TimeSpan"* @"System.TimeSpan System.TimeSpan..box(System.TimeSpan)"(%"System.TimeSpan"* byval align 4 %value) #104 {
    ; Boxing
    ; New obj
    %.r1 = call i8* @_Znwj(i32 12)
    call void @llvm.memset.p0i8.i32(i8* %.r1, i8 0, i32 12, i32 4, i1 false)
    %.r2 = bitcast i8* %.r1 to %"System.TimeSpan"*
    ; end of new obj
    ; Copy data
    %.r3 = bitcast %"System.TimeSpan"* %.r2 to i8*
    %.r4 = bitcast %"System.TimeSpan"* %value to i8*
    call void @llvm.memcpy.p0i8.p0i8.i32(i8* %.r3, i8* %.r4, i32 12, i32 4, i1 false)
    ; call Init Object method
    call void @"Void System.TimeSpan..init()"(%"System.TimeSpan"* %.r2)
    ; End of Copy data
    ret %"System.TimeSpan"* %.r2
}

; Unbox method
define void @"System.TimeSpan System.TimeSpan..unbox()"(%"System.TimeSpan"* noalias sret %agg.result, %"System.TimeSpan"* %arg.this) #105 {
    %this = alloca %"System.TimeSpan"*, align 4
    store %"System.TimeSpan"* %arg.this, %"System.TimeSpan"** %this, align 4
    %.r1 = load %"System.TimeSpan"** %this, align 4
    ; Unboxing
    ; Copy data
    %.r2 = bitcast %"System.TimeSpan"* %agg.result to i8*
    %.r3 = bitcast %"System.TimeSpan"* %.r1 to i8*
    call void @llvm.memcpy.p0i8.p0i8.i32(i8* %.r2, i8* %.r3, i32 12, i32 4, i1 false)
    ; End of Copy data
    ret  void
}



%"System.TimeZone" = type {
    %"System.Object",
    i32
}

@"System.TimeZone Virtual Table" = linkonce_odr unnamed_addr constant [13 x i8*] [
    i8* null,
    i8* bitcast ({ i8*, i8*, i8* }* @"System.TimeZone Info" to i8*),
    i8* bitcast (%"System.String"* (%"System.Object"*)* @"System.String System.Object.ToString()" to i8*),
    i8* bitcast (i1 (%"System.Object"*, %"System.Object"*)* @"Boolean System.Object.Equals(System.Object)" to i8*),
    i8* bitcast (i32 (%"System.Object"*)* @"Int32 System.Object.GetHashCode()" to i8*),
    i8* bitcast (void (%"System.Object"*)* @"Void System.Object.Finalize()" to i8*),
    i8* bitcast (void ()* @__cxa_pure_virtual to i8*),
    i8* bitcast (void ()* @__cxa_pure_virtual to i8*),
    i8* bitcast (void ()* @__cxa_pure_virtual to i8*),
    i8* bitcast (void (%"System.DateTime"*, %"System.TimeZone"*, %"System.DateTime"*)* @"System.DateTime System.TimeZone.ToUniversalTime(System.DateTime)" to i8*),
    i8* bitcast (void (%"System.DateTime"*, %"System.TimeZone"*, %"System.DateTime"*)* @"System.DateTime System.TimeZone.ToLocalTime(System.DateTime)" to i8*),
    i8* bitcast (void ()* @__cxa_pure_virtual to i8*),
    i8* bitcast (i1 (%"System.TimeZone"*, %"System.DateTime"*)* @"Boolean System.TimeZone.IsDaylightSavingTime(System.DateTime)" to i8*)
]

; RTTI class
@"System.TimeZone String Name" = linkonce_odr constant [18 x i8] c"15System.TimeZone\00"
@"System.TimeZone Info" = linkonce_odr unnamed_addr constant { i8*, i8*, i8* } {
    i8* bitcast (i8** getelementptr inbounds (i8** @_ZTVN10__cxxabiv120__si_class_type_infoE, i32 2) to i8*),
    i8* getelementptr inbounds ([18 x i8]* @"System.TimeZone String Name", i32 0, i32 0),
    i8* bitcast ({ i8*, i8* }* @"System.Object Info" to i8*)
}
; RTTI pointer
@"System.TimeZone Pointer String Name" = linkonce_odr constant [19 x i8] c"P15System.TimeZone\00"
@"System.TimeZone Pointer Info" = linkonce_odr unnamed_addr constant { i8*, i8*, i32, i8* } {
    i8* bitcast (i8** getelementptr inbounds (i8** @_ZTVN10__cxxabiv119__pointer_type_infoE, i32 2) to i8*),
    i8* getelementptr inbounds ([19 x i8]* @"System.TimeZone Pointer String Name", i32 0, i32 0),
    i32 0,
    i8* bitcast ({ i8*, i8*, i8* }* @"System.TimeZone Info" to i8*)
}

; Init Object method
define void @"Void System.TimeZone..init()"(%"System.TimeZone"* %arg.this) #106 {
    %this = alloca %"System.TimeZone"*, align 4
    store %"System.TimeZone"* %arg.this, %"System.TimeZone"** %this, align 4
    %.r1 = load %"System.TimeZone"** %this, align 4
    ; set virtual table
    %.r2 = bitcast %"System.TimeZone"* %.r1 to i8***
    store i8** getelementptr inbounds ([13 x i8*]* @"System.TimeZone Virtual Table", i64 0, i64 2), i8*** %.r2
    ret void
}



%"System.CurrentSystemTimeZone" = type {
    %"System.TimeZone",
    i64
}

@"System.CurrentSystemTimeZone Virtual Table" = linkonce_odr unnamed_addr constant [13 x i8*] [
    i8* null,
    i8* bitcast ({ i8*, i8*, i8* }* @"System.CurrentSystemTimeZone Info" to i8*),
    i8* bitcast (%"System.String"* (%"System.Object"*)* @"System.String System.Object.ToString()" to i8*),
    i8* bitcast (i1 (%"System.Object"*, %"System.Object"*)* @"Boolean System.Object.Equals(System.Object)" to i8*),
    i8* bitcast (i32 (%"System.Object"*)* @"Int32 System.Object.GetHashCode()" to i8*),
    i8* bitcast (void (%"System.Object"*)* @"Void System.Object.Finalize()" to i8*),
    i8* bitcast (%"System.String"* (%"System.CurrentSystemTimeZone"*)* @"System.String System.CurrentSystemTimeZone.get_StandardName()" to i8*),
    i8* bitcast (%"System.String"* (%"System.CurrentSystemTimeZone"*)* @"System.String System.CurrentSystemTimeZone.get_DaylightName()" to i8*),
    i8* bitcast (void (%"System.TimeSpan"*, %"System.CurrentSystemTimeZone"*, %"System.DateTime"*)* @"System.TimeSpan System.CurrentSystemTimeZone.GetUtcOffset(System.DateTime)" to i8*),
    i8* bitcast (void (%"System.DateTime"*, %"System.TimeZone"*, %"System.DateTime"*)* @"System.DateTime System.TimeZone.ToUniversalTime(System.DateTime)" to i8*),
    i8* bitcast (void (%"System.DateTime"*, %"System.TimeZone"*, %"System.DateTime"*)* @"System.DateTime System.TimeZone.ToLocalTime(System.DateTime)" to i8*),
    i8* bitcast (%"System.Globalization.DaylightTime"* (%"System.CurrentSystemTimeZone"*, i32)* @"System.Globalization.DaylightTime System.CurrentSystemTimeZone.GetDaylightChanges(Int32)" to i8*),
    i8* bitcast (i1 (%"System.TimeZone"*, %"System.DateTime"*)* @"Boolean System.TimeZone.IsDaylightSavingTime(System.DateTime)" to i8*)
]

; RTTI class
@"System.CurrentSystemTimeZone String Name" = linkonce_odr constant [31 x i8] c"28System.CurrentSystemTimeZone\00"
@"System.CurrentSystemTimeZone Info" = linkonce_odr unnamed_addr constant { i8*, i8*, i8* } {
    i8* bitcast (i8** getelementptr inbounds (i8** @_ZTVN10__cxxabiv120__si_class_type_infoE, i32 2) to i8*),
    i8* getelementptr inbounds ([31 x i8]* @"System.CurrentSystemTimeZone String Name", i32 0, i32 0),
    i8* bitcast ({ i8*, i8*, i8* }* @"System.TimeZone Info" to i8*)
}
; RTTI pointer
@"System.CurrentSystemTimeZone Pointer String Name" = linkonce_odr constant [32 x i8] c"P28System.CurrentSystemTimeZone\00"
@"System.CurrentSystemTimeZone Pointer Info" = linkonce_odr unnamed_addr constant { i8*, i8*, i32, i8* } {
    i8* bitcast (i8** getelementptr inbounds (i8** @_ZTVN10__cxxabiv119__pointer_type_infoE, i32 2) to i8*),
    i8* getelementptr inbounds ([32 x i8]* @"System.CurrentSystemTimeZone Pointer String Name", i32 0, i32 0),
    i32 0,
    i8* bitcast ({ i8*, i8*, i8* }* @"System.CurrentSystemTimeZone Info" to i8*)
}

; Init Object method
define void @"Void System.CurrentSystemTimeZone..init()"(%"System.CurrentSystemTimeZone"* %arg.this) #107 {
    %this = alloca %"System.CurrentSystemTimeZone"*, align 4
    store %"System.CurrentSystemTimeZone"* %arg.this, %"System.CurrentSystemTimeZone"** %this, align 4
    %.r1 = load %"System.CurrentSystemTimeZone"** %this, align 4
    ; set virtual table
    %.r2 = bitcast %"System.CurrentSystemTimeZone"* %.r1 to i8***
    store i8** getelementptr inbounds ([13 x i8*]* @"System.CurrentSystemTimeZone Virtual Table", i64 0, i64 2), i8*** %.r2
    ret void
}



%"System.TypeCode" = type {
    %"System.Enum",
    i32
}

@"System.TypeCode Virtual Table" = linkonce_odr unnamed_addr constant [6 x i8*] [
    i8* null,
    i8* bitcast ({ i8*, i8*, i8* }* @"System.TypeCode Info" to i8*),
    i8* bitcast (%"System.String"* (%"System.Enum"*)* @"System.String System.Enum.ToString()" to i8*),
    i8* bitcast (i1 (%"System.ValueType"*, %"System.Object"*)* @"Boolean System.ValueType.Equals(System.Object)" to i8*),
    i8* bitcast (i32 (%"System.ValueType"*)* @"Int32 System.ValueType.GetHashCode()" to i8*),
    i8* bitcast (void (%"System.Object"*)* @"Void System.Object.Finalize()" to i8*)
]

; RTTI class
@"System.TypeCode String Name" = linkonce_odr constant [18 x i8] c"15System.TypeCode\00"
@"System.TypeCode Info" = linkonce_odr unnamed_addr constant { i8*, i8*, i8* } {
    i8* bitcast (i8** getelementptr inbounds (i8** @_ZTVN10__cxxabiv120__si_class_type_infoE, i32 2) to i8*),
    i8* getelementptr inbounds ([18 x i8]* @"System.TypeCode String Name", i32 0, i32 0),
    i8* bitcast ({ i8*, i8*, i8* }* @"System.Enum Info" to i8*)
}
; RTTI pointer
@"System.TypeCode Pointer String Name" = linkonce_odr constant [19 x i8] c"P15System.TypeCode\00"
@"System.TypeCode Pointer Info" = linkonce_odr unnamed_addr constant { i8*, i8*, i32, i8* } {
    i8* bitcast (i8** getelementptr inbounds (i8** @_ZTVN10__cxxabiv119__pointer_type_infoE, i32 2) to i8*),
    i8* getelementptr inbounds ([19 x i8]* @"System.TypeCode Pointer String Name", i32 0, i32 0),
    i32 0,
    i8* bitcast ({ i8*, i8*, i8* }* @"System.TypeCode Info" to i8*)
}

; Init Object method
define void @"Void System.TypeCode..init()"(%"System.TypeCode"* %arg.this) #108 {
    %this = alloca %"System.TypeCode"*, align 4
    store %"System.TypeCode"* %arg.this, %"System.TypeCode"** %this, align 4
    %.r1 = load %"System.TypeCode"** %this, align 4
    ; set virtual table
    %.r2 = bitcast %"System.TypeCode"* %.r1 to i8***
    store i8** getelementptr inbounds ([6 x i8*]* @"System.TypeCode Virtual Table", i64 0, i64 2), i8*** %.r2
    ret void
}

; Box method
define %"System.TypeCode"* @"System.TypeCode System.TypeCode..box(System.TypeCode)"(i32 %arg.value) #109 {
    %value = alloca i32, align 4
    store i32 %arg.value, i32* %value, align 4
    %.r1 = load i32* %value, align 4
    ; Boxing
    ; New obj
    %.r2 = call i8* @_Znwj(i32 4)
    call void @llvm.memset.p0i8.i32(i8* %.r2, i8 0, i32 4, i32 4, i1 false)
    %.r3 = bitcast i8* %.r2 to %"System.TypeCode"*
    ; call Init Object method
    call void @"Void System.TypeCode..init()"(%"System.TypeCode"* %.r3)
    ; end of new obj
    ; Copy data
    %.r4 = getelementptr inbounds %"System.TypeCode"* %.r3, i32 0, i32 1
    store i32 %.r1, i32* %.r4
    ; End of Copy data
    ret %"System.TypeCode"* %.r3
}

; Unbox method
define i32 @"System.TypeCode System.TypeCode..unbox()"(%"System.TypeCode"* %arg.this) #110 {
    %this = alloca %"System.TypeCode"*, align 4
    store %"System.TypeCode"* %arg.this, %"System.TypeCode"** %this, align 4
    %.r1 = load %"System.TypeCode"** %this, align 4
    ; Unboxing
    ; Copy data
    %.r2 = getelementptr inbounds %"System.TypeCode"* %.r1, i32 0, i32 1
    %.r3 = load i32* %.r2, align 4
    ; End of Copy data
    ret i32 %.r3
}



%"System.TypedReference" = type {
    %"System.ValueType"
}

@"System.TypedReference Virtual Table" = linkonce_odr unnamed_addr constant [6 x i8*] [
    i8* null,
    i8* bitcast ({ i8*, i8*, i8* }* @"System.TypedReference Info" to i8*),
    i8* bitcast (%"System.String"* (%"System.ValueType"*)* @"System.String System.ValueType.ToString()" to i8*),
    i8* bitcast (i1 (%"System.ValueType"*, %"System.Object"*)* @"Boolean System.ValueType.Equals(System.Object)" to i8*),
    i8* bitcast (i32 (%"System.ValueType"*)* @"Int32 System.ValueType.GetHashCode()" to i8*),
    i8* bitcast (void (%"System.Object"*)* @"Void System.Object.Finalize()" to i8*)
]

; RTTI class
@"System.TypedReference String Name" = linkonce_odr constant [24 x i8] c"21System.TypedReference\00"
@"System.TypedReference Info" = linkonce_odr unnamed_addr constant { i8*, i8*, i8* } {
    i8* bitcast (i8** getelementptr inbounds (i8** @_ZTVN10__cxxabiv120__si_class_type_infoE, i32 2) to i8*),
    i8* getelementptr inbounds ([24 x i8]* @"System.TypedReference String Name", i32 0, i32 0),
    i8* bitcast ({ i8*, i8*, i8* }* @"System.ValueType Info" to i8*)
}
; RTTI pointer
@"System.TypedReference Pointer String Name" = linkonce_odr constant [25 x i8] c"P21System.TypedReference\00"
@"System.TypedReference Pointer Info" = linkonce_odr unnamed_addr constant { i8*, i8*, i32, i8* } {
    i8* bitcast (i8** getelementptr inbounds (i8** @_ZTVN10__cxxabiv119__pointer_type_infoE, i32 2) to i8*),
    i8* getelementptr inbounds ([25 x i8]* @"System.TypedReference Pointer String Name", i32 0, i32 0),
    i32 0,
    i8* bitcast ({ i8*, i8*, i8* }* @"System.TypedReference Info" to i8*)
}

; Init Object method
define void @"Void System.TypedReference..init()"(%"System.TypedReference"* %arg.this) #111 {
    %this = alloca %"System.TypedReference"*, align 4
    store %"System.TypedReference"* %arg.this, %"System.TypedReference"** %this, align 4
    %.r1 = load %"System.TypedReference"** %this, align 4
    ; set virtual table
    %.r2 = bitcast %"System.TypedReference"* %.r1 to i8***
    store i8** getelementptr inbounds ([6 x i8*]* @"System.TypedReference Virtual Table", i64 0, i64 2), i8*** %.r2
    ret void
}

; Box method
define %"System.TypedReference"* @"System.TypedReference System.TypedReference..box(System.TypedReference)"(%"System.TypedReference"* byval align 4 %value) #112 {
    ; Boxing
    ; New obj
    %.r1 = call i8* @_Znwj(i32 4)
    call void @llvm.memset.p0i8.i32(i8* %.r1, i8 0, i32 4, i32 4, i1 false)
    %.r2 = bitcast i8* %.r1 to %"System.TypedReference"*
    ; end of new obj
    ; Copy data
    %.r3 = bitcast %"System.TypedReference"* %.r2 to i8*
    %.r4 = bitcast %"System.TypedReference"* %value to i8*
    call void @llvm.memcpy.p0i8.p0i8.i32(i8* %.r3, i8* %.r4, i32 4, i32 4, i1 false)
    ; call Init Object method
    call void @"Void System.TypedReference..init()"(%"System.TypedReference"* %.r2)
    ; End of Copy data
    ret %"System.TypedReference"* %.r2
}

; Unbox method
define void @"System.TypedReference System.TypedReference..unbox()"(%"System.TypedReference"* noalias sret %agg.result, %"System.TypedReference"* %arg.this) #113 {
    %this = alloca %"System.TypedReference"*, align 4
    store %"System.TypedReference"* %arg.this, %"System.TypedReference"** %this, align 4
    %.r1 = load %"System.TypedReference"** %this, align 4
    ; Unboxing
    ; Copy data
    %.r2 = bitcast %"System.TypedReference"* %agg.result to i8*
    %.r3 = bitcast %"System.TypedReference"* %.r1 to i8*
    call void @llvm.memcpy.p0i8.p0i8.i32(i8* %.r2, i8* %.r3, i32 4, i32 4, i1 false)
    ; End of Copy data
    ret  void
}



%"System.UInt16" = type {
    %"System.ValueType",
    i16
}

@"System.UInt16 Virtual Table" = linkonce_odr unnamed_addr constant [6 x i8*] [
    i8* null,
    i8* bitcast ({ i8*, i8*, i8* }* @"System.UInt16 Info" to i8*),
    i8* bitcast (%"System.String"* (%"System.UInt16"*)* @"System.String System.UInt16.ToString()" to i8*),
    i8* bitcast (i1 (%"System.ValueType"*, %"System.Object"*)* @"Boolean System.ValueType.Equals(System.Object)" to i8*),
    i8* bitcast (i32 (%"System.ValueType"*)* @"Int32 System.ValueType.GetHashCode()" to i8*),
    i8* bitcast (void (%"System.Object"*)* @"Void System.Object.Finalize()" to i8*)
]

; RTTI class
@"System.UInt16 String Name" = linkonce_odr constant [16 x i8] c"13System.UInt16\00"
@"System.UInt16 Info" = linkonce_odr unnamed_addr constant { i8*, i8*, i8* } {
    i8* bitcast (i8** getelementptr inbounds (i8** @_ZTVN10__cxxabiv120__si_class_type_infoE, i32 2) to i8*),
    i8* getelementptr inbounds ([16 x i8]* @"System.UInt16 String Name", i32 0, i32 0),
    i8* bitcast ({ i8*, i8*, i8* }* @"System.ValueType Info" to i8*)
}
; RTTI pointer
@"System.UInt16 Pointer String Name" = linkonce_odr constant [17 x i8] c"P13System.UInt16\00"
@"System.UInt16 Pointer Info" = linkonce_odr unnamed_addr constant { i8*, i8*, i32, i8* } {
    i8* bitcast (i8** getelementptr inbounds (i8** @_ZTVN10__cxxabiv119__pointer_type_infoE, i32 2) to i8*),
    i8* getelementptr inbounds ([17 x i8]* @"System.UInt16 Pointer String Name", i32 0, i32 0),
    i32 0,
    i8* bitcast ({ i8*, i8*, i8* }* @"System.UInt16 Info" to i8*)
}

; Init Object method
define void @"Void System.UInt16..init()"(%"System.UInt16"* %arg.this) #114 {
    %this = alloca %"System.UInt16"*, align 4
    store %"System.UInt16"* %arg.this, %"System.UInt16"** %this, align 4
    %.r1 = load %"System.UInt16"** %this, align 4
    ; set virtual table
    %.r2 = bitcast %"System.UInt16"* %.r1 to i8***
    store i8** getelementptr inbounds ([6 x i8*]* @"System.UInt16 Virtual Table", i64 0, i64 2), i8*** %.r2
    ret void
}

; Box method
define %"System.UInt16"* @"System.UInt16 System.UInt16..box(UInt16)"(i16 %arg.value) #115 {
    %value = alloca i16, align 4
    store i16 %arg.value, i16* %value, align 4
    %.r1 = load i16* %value, align 4
    ; Boxing
    ; New obj
    %.r2 = call i8* @_Znwj(i32 6)
    call void @llvm.memset.p0i8.i32(i8* %.r2, i8 0, i32 6, i32 4, i1 false)
    %.r3 = bitcast i8* %.r2 to %"System.UInt16"*
    ; call Init Object method
    call void @"Void System.UInt16..init()"(%"System.UInt16"* %.r3)
    ; end of new obj
    ; Copy data
    %.r4 = getelementptr inbounds %"System.UInt16"* %.r3, i32 0, i32 1
    store i16 %.r1, i16* %.r4
    ; End of Copy data
    ret %"System.UInt16"* %.r3
}

; Unbox method
define i16 @"UInt16 System.UInt16..unbox()"(%"System.UInt16"* %arg.this) #116 {
    %this = alloca %"System.UInt16"*, align 4
    store %"System.UInt16"* %arg.this, %"System.UInt16"** %this, align 4
    %.r1 = load %"System.UInt16"** %this, align 4
    ; Unboxing
    ; Copy data
    %.r2 = getelementptr inbounds %"System.UInt16"* %.r1, i32 0, i32 1
    %.r3 = load i16* %.r2, align 4
    ; End of Copy data
    ret i16 %.r3
}



%"System.UInt32" = type {
    %"System.ValueType",
    i32
}

@"System.UInt32 Virtual Table" = linkonce_odr unnamed_addr constant [6 x i8*] [
    i8* null,
    i8* bitcast ({ i8*, i8*, i8* }* @"System.UInt32 Info" to i8*),
    i8* bitcast (%"System.String"* (%"System.UInt32"*)* @"System.String System.UInt32.ToString()" to i8*),
    i8* bitcast (i1 (%"System.ValueType"*, %"System.Object"*)* @"Boolean System.ValueType.Equals(System.Object)" to i8*),
    i8* bitcast (i32 (%"System.ValueType"*)* @"Int32 System.ValueType.GetHashCode()" to i8*),
    i8* bitcast (void (%"System.Object"*)* @"Void System.Object.Finalize()" to i8*)
]

; RTTI class
@"System.UInt32 String Name" = linkonce_odr constant [16 x i8] c"13System.UInt32\00"
@"System.UInt32 Info" = linkonce_odr unnamed_addr constant { i8*, i8*, i8* } {
    i8* bitcast (i8** getelementptr inbounds (i8** @_ZTVN10__cxxabiv120__si_class_type_infoE, i32 2) to i8*),
    i8* getelementptr inbounds ([16 x i8]* @"System.UInt32 String Name", i32 0, i32 0),
    i8* bitcast ({ i8*, i8*, i8* }* @"System.ValueType Info" to i8*)
}
; RTTI pointer
@"System.UInt32 Pointer String Name" = linkonce_odr constant [17 x i8] c"P13System.UInt32\00"
@"System.UInt32 Pointer Info" = linkonce_odr unnamed_addr constant { i8*, i8*, i32, i8* } {
    i8* bitcast (i8** getelementptr inbounds (i8** @_ZTVN10__cxxabiv119__pointer_type_infoE, i32 2) to i8*),
    i8* getelementptr inbounds ([17 x i8]* @"System.UInt32 Pointer String Name", i32 0, i32 0),
    i32 0,
    i8* bitcast ({ i8*, i8*, i8* }* @"System.UInt32 Info" to i8*)
}

; Init Object method
define void @"Void System.UInt32..init()"(%"System.UInt32"* %arg.this) #117 {
    %this = alloca %"System.UInt32"*, align 4
    store %"System.UInt32"* %arg.this, %"System.UInt32"** %this, align 4
    %.r1 = load %"System.UInt32"** %this, align 4
    ; set virtual table
    %.r2 = bitcast %"System.UInt32"* %.r1 to i8***
    store i8** getelementptr inbounds ([6 x i8*]* @"System.UInt32 Virtual Table", i64 0, i64 2), i8*** %.r2
    ret void
}

; Box method
define %"System.UInt32"* @"System.UInt32 System.UInt32..box(UInt32)"(i32 %arg.value) #118 {
    %value = alloca i32, align 4
    store i32 %arg.value, i32* %value, align 4
    %.r1 = load i32* %value, align 4
    ; Boxing
    ; New obj
    %.r2 = call i8* @_Znwj(i32 8)
    call void @llvm.memset.p0i8.i32(i8* %.r2, i8 0, i32 8, i32 4, i1 false)
    %.r3 = bitcast i8* %.r2 to %"System.UInt32"*
    ; call Init Object method
    call void @"Void System.UInt32..init()"(%"System.UInt32"* %.r3)
    ; end of new obj
    ; Copy data
    %.r4 = getelementptr inbounds %"System.UInt32"* %.r3, i32 0, i32 1
    store i32 %.r1, i32* %.r4
    ; End of Copy data
    ret %"System.UInt32"* %.r3
}

; Unbox method
define i32 @"UInt32 System.UInt32..unbox()"(%"System.UInt32"* %arg.this) #119 {
    %this = alloca %"System.UInt32"*, align 4
    store %"System.UInt32"* %arg.this, %"System.UInt32"** %this, align 4
    %.r1 = load %"System.UInt32"** %this, align 4
    ; Unboxing
    ; Copy data
    %.r2 = getelementptr inbounds %"System.UInt32"* %.r1, i32 0, i32 1
    %.r3 = load i32* %.r2, align 4
    ; End of Copy data
    ret i32 %.r3
}



%"System.UInt64" = type {
    %"System.ValueType",
    i64
}

@"System.UInt64 Virtual Table" = linkonce_odr unnamed_addr constant [6 x i8*] [
    i8* null,
    i8* bitcast ({ i8*, i8*, i8* }* @"System.UInt64 Info" to i8*),
    i8* bitcast (%"System.String"* (%"System.UInt64"*)* @"System.String System.UInt64.ToString()" to i8*),
    i8* bitcast (i1 (%"System.ValueType"*, %"System.Object"*)* @"Boolean System.ValueType.Equals(System.Object)" to i8*),
    i8* bitcast (i32 (%"System.ValueType"*)* @"Int32 System.ValueType.GetHashCode()" to i8*),
    i8* bitcast (void (%"System.Object"*)* @"Void System.Object.Finalize()" to i8*)
]

; RTTI class
@"System.UInt64 String Name" = linkonce_odr constant [16 x i8] c"13System.UInt64\00"
@"System.UInt64 Info" = linkonce_odr unnamed_addr constant { i8*, i8*, i8* } {
    i8* bitcast (i8** getelementptr inbounds (i8** @_ZTVN10__cxxabiv120__si_class_type_infoE, i32 2) to i8*),
    i8* getelementptr inbounds ([16 x i8]* @"System.UInt64 String Name", i32 0, i32 0),
    i8* bitcast ({ i8*, i8*, i8* }* @"System.ValueType Info" to i8*)
}
; RTTI pointer
@"System.UInt64 Pointer String Name" = linkonce_odr constant [17 x i8] c"P13System.UInt64\00"
@"System.UInt64 Pointer Info" = linkonce_odr unnamed_addr constant { i8*, i8*, i32, i8* } {
    i8* bitcast (i8** getelementptr inbounds (i8** @_ZTVN10__cxxabiv119__pointer_type_infoE, i32 2) to i8*),
    i8* getelementptr inbounds ([17 x i8]* @"System.UInt64 Pointer String Name", i32 0, i32 0),
    i32 0,
    i8* bitcast ({ i8*, i8*, i8* }* @"System.UInt64 Info" to i8*)
}

; Init Object method
define void @"Void System.UInt64..init()"(%"System.UInt64"* %arg.this) #120 {
    %this = alloca %"System.UInt64"*, align 4
    store %"System.UInt64"* %arg.this, %"System.UInt64"** %this, align 4
    %.r1 = load %"System.UInt64"** %this, align 4
    ; set virtual table
    %.r2 = bitcast %"System.UInt64"* %.r1 to i8***
    store i8** getelementptr inbounds ([6 x i8*]* @"System.UInt64 Virtual Table", i64 0, i64 2), i8*** %.r2
    ret void
}

; Box method
define %"System.UInt64"* @"System.UInt64 System.UInt64..box(UInt64)"(i64 %arg.value) #121 {
    %value = alloca i64, align 4
    store i64 %arg.value, i64* %value, align 4
    %.r1 = load i64* %value, align 4
    ; Boxing
    ; New obj
    %.r2 = call i8* @_Znwj(i32 12)
    call void @llvm.memset.p0i8.i32(i8* %.r2, i8 0, i32 12, i32 4, i1 false)
    %.r3 = bitcast i8* %.r2 to %"System.UInt64"*
    ; call Init Object method
    call void @"Void System.UInt64..init()"(%"System.UInt64"* %.r3)
    ; end of new obj
    ; Copy data
    %.r4 = getelementptr inbounds %"System.UInt64"* %.r3, i32 0, i32 1
    store i64 %.r1, i64* %.r4
    ; End of Copy data
    ret %"System.UInt64"* %.r3
}

; Unbox method
define i64 @"UInt64 System.UInt64..unbox()"(%"System.UInt64"* %arg.this) #122 {
    %this = alloca %"System.UInt64"*, align 4
    store %"System.UInt64"* %arg.this, %"System.UInt64"** %this, align 4
    %.r1 = load %"System.UInt64"** %this, align 4
    ; Unboxing
    ; Copy data
    %.r2 = getelementptr inbounds %"System.UInt64"* %.r1, i32 0, i32 1
    %.r3 = load i64* %.r2, align 4
    ; End of Copy data
    ret i64 %.r3
}



%"System.UIntPtr" = type {
    %"System.ValueType"
}

@"System.UIntPtr Virtual Table" = linkonce_odr unnamed_addr constant [6 x i8*] [
    i8* null,
    i8* bitcast ({ i8*, i8*, i8* }* @"System.UIntPtr Info" to i8*),
    i8* bitcast (%"System.String"* (%"System.ValueType"*)* @"System.String System.ValueType.ToString()" to i8*),
    i8* bitcast (i1 (%"System.ValueType"*, %"System.Object"*)* @"Boolean System.ValueType.Equals(System.Object)" to i8*),
    i8* bitcast (i32 (%"System.ValueType"*)* @"Int32 System.ValueType.GetHashCode()" to i8*),
    i8* bitcast (void (%"System.Object"*)* @"Void System.Object.Finalize()" to i8*)
]

; RTTI class
@"System.UIntPtr String Name" = linkonce_odr constant [17 x i8] c"14System.UIntPtr\00"
@"System.UIntPtr Info" = linkonce_odr unnamed_addr constant { i8*, i8*, i8* } {
    i8* bitcast (i8** getelementptr inbounds (i8** @_ZTVN10__cxxabiv120__si_class_type_infoE, i32 2) to i8*),
    i8* getelementptr inbounds ([17 x i8]* @"System.UIntPtr String Name", i32 0, i32 0),
    i8* bitcast ({ i8*, i8*, i8* }* @"System.ValueType Info" to i8*)
}
; RTTI pointer
@"System.UIntPtr Pointer String Name" = linkonce_odr constant [18 x i8] c"P14System.UIntPtr\00"
@"System.UIntPtr Pointer Info" = linkonce_odr unnamed_addr constant { i8*, i8*, i32, i8* } {
    i8* bitcast (i8** getelementptr inbounds (i8** @_ZTVN10__cxxabiv119__pointer_type_infoE, i32 2) to i8*),
    i8* getelementptr inbounds ([18 x i8]* @"System.UIntPtr Pointer String Name", i32 0, i32 0),
    i32 0,
    i8* bitcast ({ i8*, i8*, i8* }* @"System.UIntPtr Info" to i8*)
}

; Init Object method
define void @"Void System.UIntPtr..init()"(%"System.UIntPtr"* %arg.this) #123 {
    %this = alloca %"System.UIntPtr"*, align 4
    store %"System.UIntPtr"* %arg.this, %"System.UIntPtr"** %this, align 4
    %.r1 = load %"System.UIntPtr"** %this, align 4
    ; set virtual table
    %.r2 = bitcast %"System.UIntPtr"* %.r1 to i8***
    store i8** getelementptr inbounds ([6 x i8*]* @"System.UIntPtr Virtual Table", i64 0, i64 2), i8*** %.r2
    ret void
}



%"System.Version" = type {
    %"System.Object",
    i32,
    i32,
    i32,
    i32
}

@"System.Version Virtual Table" = linkonce_odr unnamed_addr constant [6 x i8*] [
    i8* null,
    i8* bitcast ({ i8*, i8*, i8* }* @"System.Version Info" to i8*),
    i8* bitcast (%"System.String"* (%"System.Version"*)* @"System.String System.Version.ToString()" to i8*),
    i8* bitcast (i1 (%"System.Version"*, %"System.Object"*)* @"Boolean System.Version.Equals(System.Object)" to i8*),
    i8* bitcast (i32 (%"System.Object"*)* @"Int32 System.Object.GetHashCode()" to i8*),
    i8* bitcast (void (%"System.Object"*)* @"Void System.Object.Finalize()" to i8*)
]

; RTTI class
@"System.Version String Name" = linkonce_odr constant [17 x i8] c"14System.Version\00"
@"System.Version Info" = linkonce_odr unnamed_addr constant { i8*, i8*, i8* } {
    i8* bitcast (i8** getelementptr inbounds (i8** @_ZTVN10__cxxabiv120__si_class_type_infoE, i32 2) to i8*),
    i8* getelementptr inbounds ([17 x i8]* @"System.Version String Name", i32 0, i32 0),
    i8* bitcast ({ i8*, i8* }* @"System.Object Info" to i8*)
}
; RTTI pointer
@"System.Version Pointer String Name" = linkonce_odr constant [18 x i8] c"P14System.Version\00"
@"System.Version Pointer Info" = linkonce_odr unnamed_addr constant { i8*, i8*, i32, i8* } {
    i8* bitcast (i8** getelementptr inbounds (i8** @_ZTVN10__cxxabiv119__pointer_type_infoE, i32 2) to i8*),
    i8* getelementptr inbounds ([18 x i8]* @"System.Version Pointer String Name", i32 0, i32 0),
    i32 0,
    i8* bitcast ({ i8*, i8*, i8* }* @"System.Version Info" to i8*)
}

; Init Object method
define void @"Void System.Version..init()"(%"System.Version"* %arg.this) #124 {
    %this = alloca %"System.Version"*, align 4
    store %"System.Version"* %arg.this, %"System.Version"** %this, align 4
    %.r1 = load %"System.Version"** %this, align 4
    ; set virtual table
    %.r2 = bitcast %"System.Version"* %.r1 to i8***
    store i8** getelementptr inbounds ([6 x i8*]* @"System.Version Virtual Table", i64 0, i64 2), i8*** %.r2
    ret void
}



%"System.Void" = type {
    %"System.ValueType"
}

@"System.Void Virtual Table" = linkonce_odr unnamed_addr constant [6 x i8*] [
    i8* null,
    i8* bitcast ({ i8*, i8*, i8* }* @"System.Void Info" to i8*),
    i8* bitcast (%"System.String"* (%"System.ValueType"*)* @"System.String System.ValueType.ToString()" to i8*),
    i8* bitcast (i1 (%"System.ValueType"*, %"System.Object"*)* @"Boolean System.ValueType.Equals(System.Object)" to i8*),
    i8* bitcast (i32 (%"System.ValueType"*)* @"Int32 System.ValueType.GetHashCode()" to i8*),
    i8* bitcast (void (%"System.Object"*)* @"Void System.Object.Finalize()" to i8*)
]

; RTTI class
@"System.Void String Name" = linkonce_odr constant [14 x i8] c"11System.Void\00"
@"System.Void Info" = linkonce_odr unnamed_addr constant { i8*, i8*, i8* } {
    i8* bitcast (i8** getelementptr inbounds (i8** @_ZTVN10__cxxabiv120__si_class_type_infoE, i32 2) to i8*),
    i8* getelementptr inbounds ([14 x i8]* @"System.Void String Name", i32 0, i32 0),
    i8* bitcast ({ i8*, i8*, i8* }* @"System.ValueType Info" to i8*)
}
; RTTI pointer
@"System.Void Pointer String Name" = linkonce_odr constant [15 x i8] c"P11System.Void\00"
@"System.Void Pointer Info" = linkonce_odr unnamed_addr constant { i8*, i8*, i32, i8* } {
    i8* bitcast (i8** getelementptr inbounds (i8** @_ZTVN10__cxxabiv119__pointer_type_infoE, i32 2) to i8*),
    i8* getelementptr inbounds ([15 x i8]* @"System.Void Pointer String Name", i32 0, i32 0),
    i32 0,
    i8* bitcast ({ i8*, i8*, i8* }* @"System.Void Info" to i8*)
}

; Init Object method
define void @"Void System.Void..init()"(%"System.Void"* %arg.this) #125 {
    %this = alloca %"System.Void"*, align 4
    store %"System.Void"* %arg.this, %"System.Void"** %this, align 4
    %.r1 = load %"System.Void"** %this, align 4
    ; set virtual table
    %.r2 = bitcast %"System.Void"* %.r1 to i8***
    store i8** getelementptr inbounds ([6 x i8*]* @"System.Void Virtual Table", i64 0, i64 2), i8*** %.r2
    ret void
}



%"System.WeakReference" = type {
    %"System.Object"
}

@"System.WeakReference Virtual Table" = linkonce_odr unnamed_addr constant [9 x i8*] [
    i8* null,
    i8* bitcast ({ i8*, i8*, i8* }* @"System.WeakReference Info" to i8*),
    i8* bitcast (%"System.String"* (%"System.Object"*)* @"System.String System.Object.ToString()" to i8*),
    i8* bitcast (i1 (%"System.Object"*, %"System.Object"*)* @"Boolean System.Object.Equals(System.Object)" to i8*),
    i8* bitcast (i32 (%"System.Object"*)* @"Int32 System.Object.GetHashCode()" to i8*),
    i8* bitcast (void (%"System.Object"*)* @"Void System.Object.Finalize()" to i8*),
    i8* bitcast (i1 (%"System.WeakReference"*)* @"Boolean System.WeakReference.get_IsAlive()" to i8*),
    i8* bitcast (%"System.Object"* (%"System.WeakReference"*)* @"System.Object System.WeakReference.get_Target()" to i8*),
    i8* bitcast (void (%"System.WeakReference"*, %"System.Object"*)* @"Void System.WeakReference.set_Target(System.Object)" to i8*)
]

; RTTI class
@"System.WeakReference String Name" = linkonce_odr constant [23 x i8] c"20System.WeakReference\00"
@"System.WeakReference Info" = linkonce_odr unnamed_addr constant { i8*, i8*, i8* } {
    i8* bitcast (i8** getelementptr inbounds (i8** @_ZTVN10__cxxabiv120__si_class_type_infoE, i32 2) to i8*),
    i8* getelementptr inbounds ([23 x i8]* @"System.WeakReference String Name", i32 0, i32 0),
    i8* bitcast ({ i8*, i8* }* @"System.Object Info" to i8*)
}
; RTTI pointer
@"System.WeakReference Pointer String Name" = linkonce_odr constant [24 x i8] c"P20System.WeakReference\00"
@"System.WeakReference Pointer Info" = linkonce_odr unnamed_addr constant { i8*, i8*, i32, i8* } {
    i8* bitcast (i8** getelementptr inbounds (i8** @_ZTVN10__cxxabiv119__pointer_type_infoE, i32 2) to i8*),
    i8* getelementptr inbounds ([24 x i8]* @"System.WeakReference Pointer String Name", i32 0, i32 0),
    i32 0,
    i8* bitcast ({ i8*, i8*, i8* }* @"System.WeakReference Info" to i8*)
}

; Init Object method
define void @"Void System.WeakReference..init()"(%"System.WeakReference"* %arg.this) #126 {
    %this = alloca %"System.WeakReference"*, align 4
    store %"System.WeakReference"* %arg.this, %"System.WeakReference"** %this, align 4
    %.r1 = load %"System.WeakReference"** %this, align 4
    ; set virtual table
    %.r2 = bitcast %"System.WeakReference"* %.r1 to i8***
    store i8** getelementptr inbounds ([9 x i8*]* @"System.WeakReference Virtual Table", i64 0, i64 2), i8*** %.r2
    ret void
}



%"System.Collections.IEnumerable" = type {
    i32 (...)**
    
}

; RTTI class
@"System.Collections.IEnumerable String Name" = linkonce_odr constant [33 x i8] c"30System.Collections.IEnumerable\00"
@"System.Collections.IEnumerable Info" = linkonce_odr unnamed_addr constant { i8*, i8* } {
    i8* bitcast (i8** getelementptr inbounds (i8** @_ZTVN10__cxxabiv117__class_type_infoE, i32 2) to i8*),
    i8* getelementptr inbounds ([33 x i8]* @"System.Collections.IEnumerable String Name", i32 0, i32 0)
}
; RTTI pointer
@"System.Collections.IEnumerable Pointer String Name" = linkonce_odr constant [34 x i8] c"P30System.Collections.IEnumerable\00"
@"System.Collections.IEnumerable Pointer Info" = linkonce_odr unnamed_addr constant { i8*, i8*, i32, i8* } {
    i8* bitcast (i8** getelementptr inbounds (i8** @_ZTVN10__cxxabiv119__pointer_type_infoE, i32 2) to i8*),
    i8* getelementptr inbounds ([34 x i8]* @"System.Collections.IEnumerable Pointer String Name", i32 0, i32 0),
    i32 0,
    i8* bitcast ({ i8*, i8* }* @"System.Collections.IEnumerable Info" to i8*)
}

; Init Object method
define void @"Void System.Collections.IEnumerable..init()"(%"System.Collections.IEnumerable"* %arg.this) #127 {
    %this = alloca %"System.Collections.IEnumerable"*, align 4
    store %"System.Collections.IEnumerable"* %arg.this, %"System.Collections.IEnumerable"** %this, align 4
    %.r1 = load %"System.Collections.IEnumerable"** %this, align 4
    ret void
}



%"System.Collections.ICollection" = type {
    
    %"System.Collections.IEnumerable"
}

; RTTI class
@"System.Collections.ICollection String Name" = linkonce_odr constant [33 x i8] c"30System.Collections.ICollection\00"
@"System.Collections.ICollection Info" = linkonce_odr unnamed_addr constant { i8*, i8* } {
    i8* bitcast (i8** getelementptr inbounds (i8** @_ZTVN10__cxxabiv117__class_type_infoE, i32 2) to i8*),
    i8* getelementptr inbounds ([33 x i8]* @"System.Collections.ICollection String Name", i32 0, i32 0)
}
; RTTI pointer
@"System.Collections.ICollection Pointer String Name" = linkonce_odr constant [34 x i8] c"P30System.Collections.ICollection\00"
@"System.Collections.ICollection Pointer Info" = linkonce_odr unnamed_addr constant { i8*, i8*, i32, i8* } {
    i8* bitcast (i8** getelementptr inbounds (i8** @_ZTVN10__cxxabiv119__pointer_type_infoE, i32 2) to i8*),
    i8* getelementptr inbounds ([34 x i8]* @"System.Collections.ICollection Pointer String Name", i32 0, i32 0),
    i32 0,
    i8* bitcast ({ i8*, i8* }* @"System.Collections.ICollection Info" to i8*)
}

; Init Object method
define void @"Void System.Collections.ICollection..init()"(%"System.Collections.ICollection"* %arg.this) #128 {
    %this = alloca %"System.Collections.ICollection"*, align 4
    store %"System.Collections.ICollection"* %arg.this, %"System.Collections.ICollection"** %this, align 4
    %.r1 = load %"System.Collections.ICollection"** %this, align 4
    ret void
}



%"System.Collections.IList" = type {
    
    %"System.Collections.ICollection"
}

; RTTI class
@"System.Collections.IList String Name" = linkonce_odr constant [27 x i8] c"24System.Collections.IList\00"
@"System.Collections.IList Info" = linkonce_odr unnamed_addr constant { i8*, i8* } {
    i8* bitcast (i8** getelementptr inbounds (i8** @_ZTVN10__cxxabiv117__class_type_infoE, i32 2) to i8*),
    i8* getelementptr inbounds ([27 x i8]* @"System.Collections.IList String Name", i32 0, i32 0)
}
; RTTI pointer
@"System.Collections.IList Pointer String Name" = linkonce_odr constant [28 x i8] c"P24System.Collections.IList\00"
@"System.Collections.IList Pointer Info" = linkonce_odr unnamed_addr constant { i8*, i8*, i32, i8* } {
    i8* bitcast (i8** getelementptr inbounds (i8** @_ZTVN10__cxxabiv119__pointer_type_infoE, i32 2) to i8*),
    i8* getelementptr inbounds ([28 x i8]* @"System.Collections.IList Pointer String Name", i32 0, i32 0),
    i32 0,
    i8* bitcast ({ i8*, i8* }* @"System.Collections.IList Info" to i8*)
}

; Init Object method
define void @"Void System.Collections.IList..init()"(%"System.Collections.IList"* %arg.this) #129 {
    %this = alloca %"System.Collections.IList"*, align 4
    store %"System.Collections.IList"* %arg.this, %"System.Collections.IList"** %this, align 4
    %.r1 = load %"System.Collections.IList"** %this, align 4
    ret void
}



%"System.Collections.IEnumerator" = type {
    i32 (...)**
    
}

; RTTI class
@"System.Collections.IEnumerator String Name" = linkonce_odr constant [33 x i8] c"30System.Collections.IEnumerator\00"
@"System.Collections.IEnumerator Info" = linkonce_odr unnamed_addr constant { i8*, i8* } {
    i8* bitcast (i8** getelementptr inbounds (i8** @_ZTVN10__cxxabiv117__class_type_infoE, i32 2) to i8*),
    i8* getelementptr inbounds ([33 x i8]* @"System.Collections.IEnumerator String Name", i32 0, i32 0)
}
; RTTI pointer
@"System.Collections.IEnumerator Pointer String Name" = linkonce_odr constant [34 x i8] c"P30System.Collections.IEnumerator\00"
@"System.Collections.IEnumerator Pointer Info" = linkonce_odr unnamed_addr constant { i8*, i8*, i32, i8* } {
    i8* bitcast (i8** getelementptr inbounds (i8** @_ZTVN10__cxxabiv119__pointer_type_infoE, i32 2) to i8*),
    i8* getelementptr inbounds ([34 x i8]* @"System.Collections.IEnumerator Pointer String Name", i32 0, i32 0),
    i32 0,
    i8* bitcast ({ i8*, i8* }* @"System.Collections.IEnumerator Info" to i8*)
}

; Init Object method
define void @"Void System.Collections.IEnumerator..init()"(%"System.Collections.IEnumerator"* %arg.this) #130 {
    %this = alloca %"System.Collections.IEnumerator"*, align 4
    store %"System.Collections.IEnumerator"* %arg.this, %"System.Collections.IEnumerator"** %this, align 4
    %.r1 = load %"System.Collections.IEnumerator"** %this, align 4
    ret void
}



%"System.Collections.ArrayList" = type {
    %"System.Object", 
    %"System.Collections.IList", 
    %"System.ICloneable",
    %"System.Object"**,
    i32
}

@"System.Collections.ArrayList Virtual Table" = linkonce_odr unnamed_addr constant [31 x i8*] [
    i8* null,
    i8* bitcast ({ i8*, i8*, i8* }* @"System.Collections.ArrayList Info" to i8*),
    i8* bitcast (%"System.String"* (%"System.Object"*)* @"System.String System.Object.ToString()" to i8*),
    i8* bitcast (i1 (%"System.Object"*, %"System.Object"*)* @"Boolean System.Object.Equals(System.Object)" to i8*),
    i8* bitcast (i32 (%"System.Object"*)* @"Int32 System.Object.GetHashCode()" to i8*),
    i8* bitcast (void (%"System.Object"*)* @"Void System.Object.Finalize()" to i8*),
    i8* bitcast (i32 (%"System.Collections.ArrayList"*)* @"Int32 System.Collections.ArrayList.get_Capacity()" to i8*),
    i8* bitcast (void (%"System.Collections.ArrayList"*, i32)* @"Void System.Collections.ArrayList.set_Capacity(Int32)" to i8*),
    i8* bitcast (i32 (%"System.Collections.ArrayList"*)* @"Int32 System.Collections.ArrayList.get_Count()" to i8*),
    i8* bitcast (i1 (%"System.Collections.ArrayList"*)* @"Boolean System.Collections.ArrayList.get_IsFixedSize()" to i8*),
    i8* bitcast (i1 (%"System.Collections.ArrayList"*)* @"Boolean System.Collections.ArrayList.get_IsReadOnly()" to i8*),
    i8* bitcast (i1 (%"System.Collections.ArrayList"*)* @"Boolean System.Collections.ArrayList.get_IsSynchronized()" to i8*),
    i8* bitcast (%"System.Object"* (%"System.Collections.ArrayList"*)* @"System.Object System.Collections.ArrayList.get_SyncRoot()" to i8*),
    i8* bitcast (%"System.Object"* (%"System.Collections.ArrayList"*, i32)* @"System.Object System.Collections.ArrayList.get_Item(Int32)" to i8*),
    i8* bitcast (void (%"System.Collections.ArrayList"*, i32, %"System.Object"*)* @"Void System.Collections.ArrayList.set_Item(Int32, System.Object)" to i8*),
    i8* bitcast (i32 (%"System.Collections.ArrayList"*, %"System.Object"*)* @"Int32 System.Collections.ArrayList.Add(System.Object)" to i8*),
    i8* bitcast (i32 (%"System.Collections.ArrayList"*, %"System.Object"*, %"System.Collections.IComparer"*)* @"Int32 System.Collections.ArrayList.BinarySearch(System.Object, System.Collections.IComparer)" to i8*),
    i8* bitcast (void (%"System.Collections.ArrayList"*)* @"Void System.Collections.ArrayList.Clear()" to i8*),
    i8* bitcast (%"System.Object"* (%"System.Collections.ArrayList"*)* @"System.Object System.Collections.ArrayList.Clone()" to i8*),
    i8* bitcast (i1 (%"System.Collections.ArrayList"*, %"System.Object"*)* @"Boolean System.Collections.ArrayList.Contains(System.Object)" to i8*),
    i8* bitcast (void (%"System.Collections.ArrayList"*, %"System.Array"*)* @"Void System.Collections.ArrayList.CopyTo(System.Array)" to i8*),
    i8* bitcast (void (%"System.Collections.ArrayList"*, %"System.Array"*, i32)* @"Void System.Collections.ArrayList.CopyTo(System.Array, Int32)" to i8*),
    i8* bitcast (%"System.Collections.IEnumerator"* (%"System.Collections.ArrayList"*)* @"System.Collections.IEnumerator System.Collections.ArrayList.GetEnumerator()" to i8*),
    i8* bitcast (i32 (%"System.Collections.ArrayList"*, %"System.Object"*)* @"Int32 System.Collections.ArrayList.IndexOf(System.Object)" to i8*),
    i8* bitcast (i32 (%"System.Collections.ArrayList"*, %"System.Object"*, i32)* @"Int32 System.Collections.ArrayList.IndexOf(System.Object, Int32)" to i8*),
    i8* bitcast (i32 (%"System.Collections.ArrayList"*, %"System.Object"*, i32, i32)* @"Int32 System.Collections.ArrayList.IndexOf(System.Object, Int32, Int32)" to i8*),
    i8* bitcast (void (%"System.Collections.ArrayList"*, i32, %"System.Object"*)* @"Void System.Collections.ArrayList.Insert(Int32, System.Object)" to i8*),
    i8* bitcast (void (%"System.Collections.ArrayList"*, %"System.Object"*)* @"Void System.Collections.ArrayList.Remove(System.Object)" to i8*),
    i8* bitcast (void (%"System.Collections.ArrayList"*, i32)* @"Void System.Collections.ArrayList.RemoveAt(Int32)" to i8*),
    i8* bitcast (%"System.Object"** (%"System.Collections.ArrayList"*)* @"System.Object[] System.Collections.ArrayList.ToArray()" to i8*),
    i8* bitcast (%"System.Array"* (%"System.Collections.ArrayList"*, %"System.Type"*)* @"System.Array System.Collections.ArrayList.ToArray(System.Type)" to i8*)
]

@"System.Collections.ArrayList Virtual Table System.Collections.IList Interface" = linkonce_odr unnamed_addr constant [18 x i8*] [
    i8* inttoptr (i32 -1 to i8*),
    i8* bitcast ({ i8*, i8*, i8* }* @"System.Collections.ArrayList Info" to i8*),
    i8* bitcast (%"System.Collections.IEnumerator"* (%"System.Collections.ArrayList"*)* @"System.Collections.IEnumerator System.Collections.ArrayList.GetEnumerator()" to i8*),
    i8* bitcast (void (%"System.Collections.ArrayList"*, %"System.Array"*, i32)* @"Void System.Collections.ArrayList.CopyTo(System.Array, Int32)" to i8*),
    i8* bitcast (i32 (%"System.Collections.ArrayList"*)* @"Int32 System.Collections.ArrayList.get_Count()" to i8*),
    i8* bitcast (%"System.Object"* (%"System.Collections.ArrayList"*)* @"System.Object System.Collections.ArrayList.get_SyncRoot()" to i8*),
    i8* bitcast (i1 (%"System.Collections.ArrayList"*)* @"Boolean System.Collections.ArrayList.get_IsSynchronized()" to i8*),
    i8* bitcast (%"System.Object"* (%"System.Collections.ArrayList"*, i32)* @"System.Object System.Collections.ArrayList.get_Item(Int32)" to i8*),
    i8* bitcast (void (%"System.Collections.ArrayList"*, i32, %"System.Object"*)* @"Void System.Collections.ArrayList.set_Item(Int32, System.Object)" to i8*),
    i8* bitcast (i32 (%"System.Collections.ArrayList"*, %"System.Object"*)* @"Int32 System.Collections.ArrayList.Add(System.Object)" to i8*),
    i8* bitcast (i1 (%"System.Collections.ArrayList"*, %"System.Object"*)* @"Boolean System.Collections.ArrayList.Contains(System.Object)" to i8*),
    i8* bitcast (void (%"System.Collections.ArrayList"*)* @"Void System.Collections.ArrayList.Clear()" to i8*),
    i8* bitcast (i1 (%"System.Collections.ArrayList"*)* @"Boolean System.Collections.ArrayList.get_IsReadOnly()" to i8*),
    i8* bitcast (i1 (%"System.Collections.ArrayList"*)* @"Boolean System.Collections.ArrayList.get_IsFixedSize()" to i8*),
    i8* bitcast (i32 (%"System.Collections.ArrayList"*, %"System.Object"*)* @"Int32 System.Collections.ArrayList.IndexOf(System.Object)" to i8*),
    i8* bitcast (void (%"System.Collections.ArrayList"*, i32, %"System.Object"*)* @"Void System.Collections.ArrayList.Insert(Int32, System.Object)" to i8*),
    i8* bitcast (void (%"System.Collections.ArrayList"*, %"System.Object"*)* @"Void System.Collections.ArrayList.Remove(System.Object)" to i8*),
    i8* bitcast (void (%"System.Collections.ArrayList"*, i32)* @"Void System.Collections.ArrayList.RemoveAt(Int32)" to i8*)
]

@"System.Collections.ArrayList Virtual Table System.ICloneable Interface" = linkonce_odr unnamed_addr constant [3 x i8*] [
    i8* inttoptr (i32 -2 to i8*),
    i8* bitcast ({ i8*, i8*, i8* }* @"System.Collections.ArrayList Info" to i8*),
    i8* bitcast (%"System.Object"* (%"System.Collections.ArrayList"*)* @"System.Object System.Collections.ArrayList.Clone()" to i8*)
]

; RTTI class
@"System.Collections.ArrayList String Name" = linkonce_odr constant [31 x i8] c"28System.Collections.ArrayList\00"
@"System.Collections.ArrayList Info" = linkonce_odr unnamed_addr constant { i8*, i8*, i8* } {
    i8* bitcast (i8** getelementptr inbounds (i8** @_ZTVN10__cxxabiv120__si_class_type_infoE, i32 2) to i8*),
    i8* getelementptr inbounds ([31 x i8]* @"System.Collections.ArrayList String Name", i32 0, i32 0),
    i8* bitcast ({ i8*, i8* }* @"System.Object Info" to i8*)
}
; RTTI pointer
@"System.Collections.ArrayList Pointer String Name" = linkonce_odr constant [32 x i8] c"P28System.Collections.ArrayList\00"
@"System.Collections.ArrayList Pointer Info" = linkonce_odr unnamed_addr constant { i8*, i8*, i32, i8* } {
    i8* bitcast (i8** getelementptr inbounds (i8** @_ZTVN10__cxxabiv119__pointer_type_infoE, i32 2) to i8*),
    i8* getelementptr inbounds ([32 x i8]* @"System.Collections.ArrayList Pointer String Name", i32 0, i32 0),
    i32 0,
    i8* bitcast ({ i8*, i8*, i8* }* @"System.Collections.ArrayList Info" to i8*)
}

; Init Object method
define void @"Void System.Collections.ArrayList..init()"(%"System.Collections.ArrayList"* %arg.this) #131 {
    %this = alloca %"System.Collections.ArrayList"*, align 4
    store %"System.Collections.ArrayList"* %arg.this, %"System.Collections.ArrayList"** %this, align 4
    %.r1 = load %"System.Collections.ArrayList"** %this, align 4
    ; set virtual table
    %.r2 = bitcast %"System.Collections.ArrayList"* %.r1 to i8***
    store i8** getelementptr inbounds ([31 x i8*]* @"System.Collections.ArrayList Virtual Table", i64 0, i64 2), i8*** %.r2
    ; set virtual interface table
    ; Get interface 'System.Collections.IList' of 'System.Collections.ArrayList'
    %.r3 = getelementptr inbounds %"System.Collections.ArrayList"* %.r1, i32 0, i32 1
    %.r4 = bitcast %"System.Collections.IList"* %.r3 to i8***
    store i8** getelementptr inbounds ([18 x i8*]* @"System.Collections.ArrayList Virtual Table System.Collections.IList Interface", i64 0, i64 2), i8*** %.r4
    ; set virtual interface table
    ; Get interface 'System.ICloneable' of 'System.Collections.ArrayList'
    %.r5 = getelementptr inbounds %"System.Collections.ArrayList"* %.r1, i32 0, i32 2
    %.r6 = bitcast %"System.ICloneable"* %.r5 to i8***
    store i8** getelementptr inbounds ([3 x i8*]* @"System.Collections.ArrayList Virtual Table System.ICloneable Interface", i64 0, i64 2), i8*** %.r6
    ret void
}



%"System.Collections.DictionaryEntry" = type {
    %"System.Object",
    %"System.Object"*,
    %"System.Object"*
}

@"System.Collections.DictionaryEntry Virtual Table" = linkonce_odr unnamed_addr constant [6 x i8*] [
    i8* null,
    i8* bitcast ({ i8*, i8*, i8* }* @"System.Collections.DictionaryEntry Info" to i8*),
    i8* bitcast (%"System.String"* (%"System.Object"*)* @"System.String System.Object.ToString()" to i8*),
    i8* bitcast (i1 (%"System.Object"*, %"System.Object"*)* @"Boolean System.Object.Equals(System.Object)" to i8*),
    i8* bitcast (i32 (%"System.Object"*)* @"Int32 System.Object.GetHashCode()" to i8*),
    i8* bitcast (void (%"System.Object"*)* @"Void System.Object.Finalize()" to i8*)
]

; RTTI class
@"System.Collections.DictionaryEntry String Name" = linkonce_odr constant [37 x i8] c"34System.Collections.DictionaryEntry\00"
@"System.Collections.DictionaryEntry Info" = linkonce_odr unnamed_addr constant { i8*, i8*, i8* } {
    i8* bitcast (i8** getelementptr inbounds (i8** @_ZTVN10__cxxabiv120__si_class_type_infoE, i32 2) to i8*),
    i8* getelementptr inbounds ([37 x i8]* @"System.Collections.DictionaryEntry String Name", i32 0, i32 0),
    i8* bitcast ({ i8*, i8* }* @"System.Object Info" to i8*)
}
; RTTI pointer
@"System.Collections.DictionaryEntry Pointer String Name" = linkonce_odr constant [38 x i8] c"P34System.Collections.DictionaryEntry\00"
@"System.Collections.DictionaryEntry Pointer Info" = linkonce_odr unnamed_addr constant { i8*, i8*, i32, i8* } {
    i8* bitcast (i8** getelementptr inbounds (i8** @_ZTVN10__cxxabiv119__pointer_type_infoE, i32 2) to i8*),
    i8* getelementptr inbounds ([38 x i8]* @"System.Collections.DictionaryEntry Pointer String Name", i32 0, i32 0),
    i32 0,
    i8* bitcast ({ i8*, i8*, i8* }* @"System.Collections.DictionaryEntry Info" to i8*)
}

; Init Object method
define void @"Void System.Collections.DictionaryEntry..init()"(%"System.Collections.DictionaryEntry"* %arg.this) #132 {
    %this = alloca %"System.Collections.DictionaryEntry"*, align 4
    store %"System.Collections.DictionaryEntry"* %arg.this, %"System.Collections.DictionaryEntry"** %this, align 4
    %.r1 = load %"System.Collections.DictionaryEntry"** %this, align 4
    ; set virtual table
    %.r2 = bitcast %"System.Collections.DictionaryEntry"* %.r1 to i8***
    store i8** getelementptr inbounds ([6 x i8*]* @"System.Collections.DictionaryEntry Virtual Table", i64 0, i64 2), i8*** %.r2
    ret void
}



%"System.Collections.IDictionary" = type {
    
    %"System.Collections.ICollection"
}

; RTTI class
@"System.Collections.IDictionary String Name" = linkonce_odr constant [33 x i8] c"30System.Collections.IDictionary\00"
@"System.Collections.IDictionary Info" = linkonce_odr unnamed_addr constant { i8*, i8* } {
    i8* bitcast (i8** getelementptr inbounds (i8** @_ZTVN10__cxxabiv117__class_type_infoE, i32 2) to i8*),
    i8* getelementptr inbounds ([33 x i8]* @"System.Collections.IDictionary String Name", i32 0, i32 0)
}
; RTTI pointer
@"System.Collections.IDictionary Pointer String Name" = linkonce_odr constant [34 x i8] c"P30System.Collections.IDictionary\00"
@"System.Collections.IDictionary Pointer Info" = linkonce_odr unnamed_addr constant { i8*, i8*, i32, i8* } {
    i8* bitcast (i8** getelementptr inbounds (i8** @_ZTVN10__cxxabiv119__pointer_type_infoE, i32 2) to i8*),
    i8* getelementptr inbounds ([34 x i8]* @"System.Collections.IDictionary Pointer String Name", i32 0, i32 0),
    i32 0,
    i8* bitcast ({ i8*, i8* }* @"System.Collections.IDictionary Info" to i8*)
}

; Init Object method
define void @"Void System.Collections.IDictionary..init()"(%"System.Collections.IDictionary"* %arg.this) #133 {
    %this = alloca %"System.Collections.IDictionary"*, align 4
    store %"System.Collections.IDictionary"* %arg.this, %"System.Collections.IDictionary"** %this, align 4
    %.r1 = load %"System.Collections.IDictionary"** %this, align 4
    ret void
}



%"System.Collections.Hashtable" = type {
    %"System.Object", 
    %"System.ICloneable", 
    %"System.Collections.IDictionary",
    %"System.Collections.Hashtable+Entry"**,
    i32,
    i32,
    i32,
    i32,
    double
}

@"System.Collections.Hashtable Virtual Table" = linkonce_odr unnamed_addr constant [6 x i8*] [
    i8* null,
    i8* bitcast ({ i8*, i8*, i8* }* @"System.Collections.Hashtable Info" to i8*),
    i8* bitcast (%"System.String"* (%"System.Object"*)* @"System.String System.Object.ToString()" to i8*),
    i8* bitcast (i1 (%"System.Object"*, %"System.Object"*)* @"Boolean System.Object.Equals(System.Object)" to i8*),
    i8* bitcast (i32 (%"System.Object"*)* @"Int32 System.Object.GetHashCode()" to i8*),
    i8* bitcast (void (%"System.Object"*)* @"Void System.Object.Finalize()" to i8*)
]

@"System.Collections.Hashtable Virtual Table System.ICloneable Interface" = linkonce_odr unnamed_addr constant [3 x i8*] [
    i8* inttoptr (i32 -1 to i8*),
    i8* bitcast ({ i8*, i8*, i8* }* @"System.Collections.Hashtable Info" to i8*),
    i8* bitcast (%"System.Object"* (%"System.Collections.Hashtable"*)* @"System.Object System.Collections.Hashtable.Clone()" to i8*)
]

@"System.Collections.Hashtable Virtual Table System.Collections.IDictionary Interface" = linkonce_odr unnamed_addr constant [17 x i8*] [
    i8* inttoptr (i32 -2 to i8*),
    i8* bitcast ({ i8*, i8*, i8* }* @"System.Collections.Hashtable Info" to i8*),
    i8* bitcast (%"System.Collections.IEnumerator"* (%"System.Collections.Hashtable"*)* @"System.Collections.IEnumerator System.Collections.Hashtable.GetEnumerator()" to i8*),
    i8* bitcast (void (%"System.Collections.Hashtable"*, %"System.Array"*, i32)* @"Void System.Collections.Hashtable.CopyTo(System.Array, Int32)" to i8*),
    i8* bitcast (i32 (%"System.Collections.Hashtable"*)* @"Int32 System.Collections.Hashtable.get_Count()" to i8*),
    i8* bitcast (%"System.Object"* (%"System.Collections.Hashtable"*)* @"System.Object System.Collections.Hashtable.get_SyncRoot()" to i8*),
    i8* bitcast (i1 (%"System.Collections.Hashtable"*)* @"Boolean System.Collections.Hashtable.get_IsSynchronized()" to i8*),
    i8* bitcast (i1 (%"System.Collections.Hashtable"*)* @"Boolean System.Collections.Hashtable.get_IsReadOnly()" to i8*),
    i8* bitcast (i1 (%"System.Collections.Hashtable"*)* @"Boolean System.Collections.Hashtable.get_IsFixedSize()" to i8*),
    i8* bitcast (%"System.Collections.ICollection"* (%"System.Collections.Hashtable"*)* @"System.Collections.ICollection System.Collections.Hashtable.get_Keys()" to i8*),
    i8* bitcast (%"System.Collections.ICollection"* (%"System.Collections.Hashtable"*)* @"System.Collections.ICollection System.Collections.Hashtable.get_Values()" to i8*),
    i8* bitcast (%"System.Object"* (%"System.Collections.Hashtable"*, %"System.Object"*)* @"System.Object System.Collections.Hashtable.get_Item(System.Object)" to i8*),
    i8* bitcast (void (%"System.Collections.Hashtable"*, %"System.Object"*, %"System.Object"*)* @"Void System.Collections.Hashtable.set_Item(System.Object, System.Object)" to i8*),
    i8* bitcast (void (%"System.Collections.Hashtable"*, %"System.Object"*, %"System.Object"*)* @"Void System.Collections.Hashtable.Add(System.Object, System.Object)" to i8*),
    i8* bitcast (void (%"System.Collections.Hashtable"*)* @"Void System.Collections.Hashtable.Clear()" to i8*),
    i8* bitcast (i1 (%"System.Collections.Hashtable"*, %"System.Object"*)* @"Boolean System.Collections.Hashtable.Contains(System.Object)" to i8*),
    i8* bitcast (void (%"System.Collections.Hashtable"*, %"System.Object"*)* @"Void System.Collections.Hashtable.Remove(System.Object)" to i8*)
]

; RTTI class
@"System.Collections.Hashtable String Name" = linkonce_odr constant [31 x i8] c"28System.Collections.Hashtable\00"
@"System.Collections.Hashtable Info" = linkonce_odr unnamed_addr constant { i8*, i8*, i8* } {
    i8* bitcast (i8** getelementptr inbounds (i8** @_ZTVN10__cxxabiv120__si_class_type_infoE, i32 2) to i8*),
    i8* getelementptr inbounds ([31 x i8]* @"System.Collections.Hashtable String Name", i32 0, i32 0),
    i8* bitcast ({ i8*, i8* }* @"System.Object Info" to i8*)
}
; RTTI pointer
@"System.Collections.Hashtable Pointer String Name" = linkonce_odr constant [32 x i8] c"P28System.Collections.Hashtable\00"
@"System.Collections.Hashtable Pointer Info" = linkonce_odr unnamed_addr constant { i8*, i8*, i32, i8* } {
    i8* bitcast (i8** getelementptr inbounds (i8** @_ZTVN10__cxxabiv119__pointer_type_infoE, i32 2) to i8*),
    i8* getelementptr inbounds ([32 x i8]* @"System.Collections.Hashtable Pointer String Name", i32 0, i32 0),
    i32 0,
    i8* bitcast ({ i8*, i8*, i8* }* @"System.Collections.Hashtable Info" to i8*)
}

; Init Object method
define void @"Void System.Collections.Hashtable..init()"(%"System.Collections.Hashtable"* %arg.this) #134 {
    %this = alloca %"System.Collections.Hashtable"*, align 4
    store %"System.Collections.Hashtable"* %arg.this, %"System.Collections.Hashtable"** %this, align 4
    %.r1 = load %"System.Collections.Hashtable"** %this, align 4
    ; set virtual table
    %.r2 = bitcast %"System.Collections.Hashtable"* %.r1 to i8***
    store i8** getelementptr inbounds ([6 x i8*]* @"System.Collections.Hashtable Virtual Table", i64 0, i64 2), i8*** %.r2
    ; set virtual interface table
    ; Get interface 'System.ICloneable' of 'System.Collections.Hashtable'
    %.r3 = getelementptr inbounds %"System.Collections.Hashtable"* %.r1, i32 0, i32 1
    %.r4 = bitcast %"System.ICloneable"* %.r3 to i8***
    store i8** getelementptr inbounds ([3 x i8*]* @"System.Collections.Hashtable Virtual Table System.ICloneable Interface", i64 0, i64 2), i8*** %.r4
    ; set virtual interface table
    ; Get interface 'System.Collections.IDictionary' of 'System.Collections.Hashtable'
    %.r5 = getelementptr inbounds %"System.Collections.Hashtable"* %.r1, i32 0, i32 2
    %.r6 = bitcast %"System.Collections.IDictionary"* %.r5 to i8***
    store i8** getelementptr inbounds ([17 x i8*]* @"System.Collections.Hashtable Virtual Table System.Collections.IDictionary Interface", i64 0, i64 2), i8*** %.r6
    ret void
}



%"System.Collections.Hashtable+Entry" = type {
    %"System.Object",
    %"System.Object"*,
    %"System.Object"*,
    %"System.Collections.Hashtable+Entry"*
}

@"System.Collections.Hashtable+Entry Virtual Table" = linkonce_odr unnamed_addr constant [6 x i8*] [
    i8* null,
    i8* bitcast ({ i8*, i8*, i8* }* @"System.Collections.Hashtable+Entry Info" to i8*),
    i8* bitcast (%"System.String"* (%"System.Object"*)* @"System.String System.Object.ToString()" to i8*),
    i8* bitcast (i1 (%"System.Object"*, %"System.Object"*)* @"Boolean System.Object.Equals(System.Object)" to i8*),
    i8* bitcast (i32 (%"System.Object"*)* @"Int32 System.Object.GetHashCode()" to i8*),
    i8* bitcast (void (%"System.Object"*)* @"Void System.Object.Finalize()" to i8*)
]

; RTTI class
@"System.Collections.Hashtable+Entry String Name" = linkonce_odr constant [37 x i8] c"34System.Collections.Hashtable+Entry\00"
@"System.Collections.Hashtable+Entry Info" = linkonce_odr unnamed_addr constant { i8*, i8*, i8* } {
    i8* bitcast (i8** getelementptr inbounds (i8** @_ZTVN10__cxxabiv120__si_class_type_infoE, i32 2) to i8*),
    i8* getelementptr inbounds ([37 x i8]* @"System.Collections.Hashtable+Entry String Name", i32 0, i32 0),
    i8* bitcast ({ i8*, i8* }* @"System.Object Info" to i8*)
}
; RTTI pointer
@"System.Collections.Hashtable+Entry Pointer String Name" = linkonce_odr constant [38 x i8] c"P34System.Collections.Hashtable+Entry\00"
@"System.Collections.Hashtable+Entry Pointer Info" = linkonce_odr unnamed_addr constant { i8*, i8*, i32, i8* } {
    i8* bitcast (i8** getelementptr inbounds (i8** @_ZTVN10__cxxabiv119__pointer_type_infoE, i32 2) to i8*),
    i8* getelementptr inbounds ([38 x i8]* @"System.Collections.Hashtable+Entry Pointer String Name", i32 0, i32 0),
    i32 0,
    i8* bitcast ({ i8*, i8*, i8* }* @"System.Collections.Hashtable+Entry Info" to i8*)
}

; Init Object method
define void @"Void System.Collections.Hashtable+Entry..init()"(%"System.Collections.Hashtable+Entry"* %arg.this) #135 {
    %this = alloca %"System.Collections.Hashtable+Entry"*, align 4
    store %"System.Collections.Hashtable+Entry"* %arg.this, %"System.Collections.Hashtable+Entry"** %this, align 4
    %.r1 = load %"System.Collections.Hashtable+Entry"** %this, align 4
    ; set virtual table
    %.r2 = bitcast %"System.Collections.Hashtable+Entry"* %.r1 to i8***
    store i8** getelementptr inbounds ([6 x i8*]* @"System.Collections.Hashtable+Entry Virtual Table", i64 0, i64 2), i8*** %.r2
    ret void
}



%"System.Collections.Hashtable+HashtableEnumerator" = type {
    %"System.Object", 
    %"System.Collections.IEnumerator",
    %"System.Collections.Hashtable"*,
    %"System.Collections.Hashtable+Entry"*,
    i32,
    i32
}

@"System.Collections.Hashtable+HashtableEnumerator Virtual Table" = linkonce_odr unnamed_addr constant [6 x i8*] [
    i8* null,
    i8* bitcast ({ i8*, i8*, i8* }* @"System.Collections.Hashtable+HashtableEnumerator Info" to i8*),
    i8* bitcast (%"System.String"* (%"System.Object"*)* @"System.String System.Object.ToString()" to i8*),
    i8* bitcast (i1 (%"System.Object"*, %"System.Object"*)* @"Boolean System.Object.Equals(System.Object)" to i8*),
    i8* bitcast (i32 (%"System.Object"*)* @"Int32 System.Object.GetHashCode()" to i8*),
    i8* bitcast (void (%"System.Object"*)* @"Void System.Object.Finalize()" to i8*)
]

@"System.Collections.Hashtable+HashtableEnumerator Virtual Table System.Collections.IEnumerator Interface" = linkonce_odr unnamed_addr constant [5 x i8*] [
    i8* inttoptr (i32 -1 to i8*),
    i8* bitcast ({ i8*, i8*, i8* }* @"System.Collections.Hashtable+HashtableEnumerator Info" to i8*),
    i8* bitcast (i1 (%"System.Collections.Hashtable+HashtableEnumerator"*)* @"Boolean System.Collections.Hashtable+HashtableEnumerator.MoveNext()" to i8*),
    i8* bitcast (%"System.Object"* (%"System.Collections.Hashtable+HashtableEnumerator"*)* @"System.Object System.Collections.Hashtable+HashtableEnumerator.get_Current()" to i8*),
    i8* bitcast (void (%"System.Collections.Hashtable+HashtableEnumerator"*)* @"Void System.Collections.Hashtable+HashtableEnumerator.Reset()" to i8*)
]

; RTTI class
@"System.Collections.Hashtable+HashtableEnumerator String Name" = linkonce_odr constant [51 x i8] c"48System.Collections.Hashtable+HashtableEnumerator\00"
@"System.Collections.Hashtable+HashtableEnumerator Info" = linkonce_odr unnamed_addr constant { i8*, i8*, i8* } {
    i8* bitcast (i8** getelementptr inbounds (i8** @_ZTVN10__cxxabiv120__si_class_type_infoE, i32 2) to i8*),
    i8* getelementptr inbounds ([51 x i8]* @"System.Collections.Hashtable+HashtableEnumerator String Name", i32 0, i32 0),
    i8* bitcast ({ i8*, i8* }* @"System.Object Info" to i8*)
}
; RTTI pointer
@"System.Collections.Hashtable+HashtableEnumerator Pointer String Name" = linkonce_odr constant [52 x i8] c"P48System.Collections.Hashtable+HashtableEnumerator\00"
@"System.Collections.Hashtable+HashtableEnumerator Pointer Info" = linkonce_odr unnamed_addr constant { i8*, i8*, i32, i8* } {
    i8* bitcast (i8** getelementptr inbounds (i8** @_ZTVN10__cxxabiv119__pointer_type_infoE, i32 2) to i8*),
    i8* getelementptr inbounds ([52 x i8]* @"System.Collections.Hashtable+HashtableEnumerator Pointer String Name", i32 0, i32 0),
    i32 0,
    i8* bitcast ({ i8*, i8*, i8* }* @"System.Collections.Hashtable+HashtableEnumerator Info" to i8*)
}

; Init Object method
define void @"Void System.Collections.Hashtable+HashtableEnumerator..init()"(%"System.Collections.Hashtable+HashtableEnumerator"* %arg.this) #136 {
    %this = alloca %"System.Collections.Hashtable+HashtableEnumerator"*, align 4
    store %"System.Collections.Hashtable+HashtableEnumerator"* %arg.this, %"System.Collections.Hashtable+HashtableEnumerator"** %this, align 4
    %.r1 = load %"System.Collections.Hashtable+HashtableEnumerator"** %this, align 4
    ; set virtual table
    %.r2 = bitcast %"System.Collections.Hashtable+HashtableEnumerator"* %.r1 to i8***
    store i8** getelementptr inbounds ([6 x i8*]* @"System.Collections.Hashtable+HashtableEnumerator Virtual Table", i64 0, i64 2), i8*** %.r2
    ; set virtual interface table
    ; Get interface 'System.Collections.IEnumerator' of 'System.Collections.Hashtable+HashtableEnumerator'
    %.r3 = getelementptr inbounds %"System.Collections.Hashtable+HashtableEnumerator"* %.r1, i32 0, i32 1
    %.r4 = bitcast %"System.Collections.IEnumerator"* %.r3 to i8***
    store i8** getelementptr inbounds ([5 x i8*]* @"System.Collections.Hashtable+HashtableEnumerator Virtual Table System.Collections.IEnumerator Interface", i64 0, i64 2), i8*** %.r4
    ret void
}



%"System.Collections.Hashtable+EnumeratorType" = type {
    %"System.Enum",
    i32
}

@"System.Collections.Hashtable+EnumeratorType Virtual Table" = linkonce_odr unnamed_addr constant [6 x i8*] [
    i8* null,
    i8* bitcast ({ i8*, i8*, i8* }* @"System.Collections.Hashtable+EnumeratorType Info" to i8*),
    i8* bitcast (%"System.String"* (%"System.Enum"*)* @"System.String System.Enum.ToString()" to i8*),
    i8* bitcast (i1 (%"System.ValueType"*, %"System.Object"*)* @"Boolean System.ValueType.Equals(System.Object)" to i8*),
    i8* bitcast (i32 (%"System.ValueType"*)* @"Int32 System.ValueType.GetHashCode()" to i8*),
    i8* bitcast (void (%"System.Object"*)* @"Void System.Object.Finalize()" to i8*)
]

; RTTI class
@"System.Collections.Hashtable+EnumeratorType String Name" = linkonce_odr constant [46 x i8] c"43System.Collections.Hashtable+EnumeratorType\00"
@"System.Collections.Hashtable+EnumeratorType Info" = linkonce_odr unnamed_addr constant { i8*, i8*, i8* } {
    i8* bitcast (i8** getelementptr inbounds (i8** @_ZTVN10__cxxabiv120__si_class_type_infoE, i32 2) to i8*),
    i8* getelementptr inbounds ([46 x i8]* @"System.Collections.Hashtable+EnumeratorType String Name", i32 0, i32 0),
    i8* bitcast ({ i8*, i8*, i8* }* @"System.Enum Info" to i8*)
}
; RTTI pointer
@"System.Collections.Hashtable+EnumeratorType Pointer String Name" = linkonce_odr constant [47 x i8] c"P43System.Collections.Hashtable+EnumeratorType\00"
@"System.Collections.Hashtable+EnumeratorType Pointer Info" = linkonce_odr unnamed_addr constant { i8*, i8*, i32, i8* } {
    i8* bitcast (i8** getelementptr inbounds (i8** @_ZTVN10__cxxabiv119__pointer_type_infoE, i32 2) to i8*),
    i8* getelementptr inbounds ([47 x i8]* @"System.Collections.Hashtable+EnumeratorType Pointer String Name", i32 0, i32 0),
    i32 0,
    i8* bitcast ({ i8*, i8*, i8* }* @"System.Collections.Hashtable+EnumeratorType Info" to i8*)
}

; Init Object method
define void @"Void System.Collections.Hashtable+EnumeratorType..init()"(%"System.Collections.Hashtable+EnumeratorType"* %arg.this) #137 {
    %this = alloca %"System.Collections.Hashtable+EnumeratorType"*, align 4
    store %"System.Collections.Hashtable+EnumeratorType"* %arg.this, %"System.Collections.Hashtable+EnumeratorType"** %this, align 4
    %.r1 = load %"System.Collections.Hashtable+EnumeratorType"** %this, align 4
    ; set virtual table
    %.r2 = bitcast %"System.Collections.Hashtable+EnumeratorType"* %.r1 to i8***
    store i8** getelementptr inbounds ([6 x i8*]* @"System.Collections.Hashtable+EnumeratorType Virtual Table", i64 0, i64 2), i8*** %.r2
    ret void
}

; Box method
define %"System.Collections.Hashtable+EnumeratorType"* @"System.Collections.Hashtable+EnumeratorType System.Collections.Hashtable+EnumeratorType..box(System.Collections.Hashtable+EnumeratorType)"(i32 %arg.value) #138 {
    %value = alloca i32, align 4
    store i32 %arg.value, i32* %value, align 4
    %.r1 = load i32* %value, align 4
    ; Boxing
    ; New obj
    %.r2 = call i8* @_Znwj(i32 4)
    call void @llvm.memset.p0i8.i32(i8* %.r2, i8 0, i32 4, i32 4, i1 false)
    %.r3 = bitcast i8* %.r2 to %"System.Collections.Hashtable+EnumeratorType"*
    ; call Init Object method
    call void @"Void System.Collections.Hashtable+EnumeratorType..init()"(%"System.Collections.Hashtable+EnumeratorType"* %.r3)
    ; end of new obj
    ; Copy data
    %.r4 = getelementptr inbounds %"System.Collections.Hashtable+EnumeratorType"* %.r3, i32 0, i32 1
    store i32 %.r1, i32* %.r4
    ; End of Copy data
    ret %"System.Collections.Hashtable+EnumeratorType"* %.r3
}

; Unbox method
define i32 @"System.Collections.Hashtable+EnumeratorType System.Collections.Hashtable+EnumeratorType..unbox()"(%"System.Collections.Hashtable+EnumeratorType"* %arg.this) #139 {
    %this = alloca %"System.Collections.Hashtable+EnumeratorType"*, align 4
    store %"System.Collections.Hashtable+EnumeratorType"* %arg.this, %"System.Collections.Hashtable+EnumeratorType"** %this, align 4
    %.r1 = load %"System.Collections.Hashtable+EnumeratorType"** %this, align 4
    ; Unboxing
    ; Copy data
    %.r2 = getelementptr inbounds %"System.Collections.Hashtable+EnumeratorType"* %.r1, i32 0, i32 1
    %.r3 = load i32* %.r2, align 4
    ; End of Copy data
    ret i32 %.r3
}



%"System.Collections.Hashtable+KeyCollection" = type {
    %"System.Object", 
    %"System.Collections.ICollection",
    %"System.Collections.Hashtable"*
}

@"System.Collections.Hashtable+KeyCollection Virtual Table" = linkonce_odr unnamed_addr constant [6 x i8*] [
    i8* null,
    i8* bitcast ({ i8*, i8*, i8* }* @"System.Collections.Hashtable+KeyCollection Info" to i8*),
    i8* bitcast (%"System.String"* (%"System.Object"*)* @"System.String System.Object.ToString()" to i8*),
    i8* bitcast (i1 (%"System.Object"*, %"System.Object"*)* @"Boolean System.Object.Equals(System.Object)" to i8*),
    i8* bitcast (i32 (%"System.Object"*)* @"Int32 System.Object.GetHashCode()" to i8*),
    i8* bitcast (void (%"System.Object"*)* @"Void System.Object.Finalize()" to i8*)
]

@"System.Collections.Hashtable+KeyCollection Virtual Table System.Collections.ICollection Interface" = linkonce_odr unnamed_addr constant [7 x i8*] [
    i8* inttoptr (i32 -1 to i8*),
    i8* bitcast ({ i8*, i8*, i8* }* @"System.Collections.Hashtable+KeyCollection Info" to i8*),
    i8* bitcast (%"System.Collections.IEnumerator"* (%"System.Collections.Hashtable+KeyCollection"*)* @"System.Collections.IEnumerator System.Collections.Hashtable+KeyCollection.GetEnumerator()" to i8*),
    i8* bitcast (void (%"System.Collections.Hashtable+KeyCollection"*, %"System.Array"*, i32)* @"Void System.Collections.Hashtable+KeyCollection.CopyTo(System.Array, Int32)" to i8*),
    i8* bitcast (i32 (%"System.Collections.Hashtable+KeyCollection"*)* @"Int32 System.Collections.Hashtable+KeyCollection.get_Count()" to i8*),
    i8* bitcast (%"System.Object"* (%"System.Collections.Hashtable+KeyCollection"*)* @"System.Object System.Collections.Hashtable+KeyCollection.get_SyncRoot()" to i8*),
    i8* bitcast (i1 (%"System.Collections.Hashtable+KeyCollection"*)* @"Boolean System.Collections.Hashtable+KeyCollection.get_IsSynchronized()" to i8*)
]

; RTTI class
@"System.Collections.Hashtable+KeyCollection String Name" = linkonce_odr constant [45 x i8] c"42System.Collections.Hashtable+KeyCollection\00"
@"System.Collections.Hashtable+KeyCollection Info" = linkonce_odr unnamed_addr constant { i8*, i8*, i8* } {
    i8* bitcast (i8** getelementptr inbounds (i8** @_ZTVN10__cxxabiv120__si_class_type_infoE, i32 2) to i8*),
    i8* getelementptr inbounds ([45 x i8]* @"System.Collections.Hashtable+KeyCollection String Name", i32 0, i32 0),
    i8* bitcast ({ i8*, i8* }* @"System.Object Info" to i8*)
}
; RTTI pointer
@"System.Collections.Hashtable+KeyCollection Pointer String Name" = linkonce_odr constant [46 x i8] c"P42System.Collections.Hashtable+KeyCollection\00"
@"System.Collections.Hashtable+KeyCollection Pointer Info" = linkonce_odr unnamed_addr constant { i8*, i8*, i32, i8* } {
    i8* bitcast (i8** getelementptr inbounds (i8** @_ZTVN10__cxxabiv119__pointer_type_infoE, i32 2) to i8*),
    i8* getelementptr inbounds ([46 x i8]* @"System.Collections.Hashtable+KeyCollection Pointer String Name", i32 0, i32 0),
    i32 0,
    i8* bitcast ({ i8*, i8*, i8* }* @"System.Collections.Hashtable+KeyCollection Info" to i8*)
}

; Init Object method
define void @"Void System.Collections.Hashtable+KeyCollection..init()"(%"System.Collections.Hashtable+KeyCollection"* %arg.this) #140 {
    %this = alloca %"System.Collections.Hashtable+KeyCollection"*, align 4
    store %"System.Collections.Hashtable+KeyCollection"* %arg.this, %"System.Collections.Hashtable+KeyCollection"** %this, align 4
    %.r1 = load %"System.Collections.Hashtable+KeyCollection"** %this, align 4
    ; set virtual table
    %.r2 = bitcast %"System.Collections.Hashtable+KeyCollection"* %.r1 to i8***
    store i8** getelementptr inbounds ([6 x i8*]* @"System.Collections.Hashtable+KeyCollection Virtual Table", i64 0, i64 2), i8*** %.r2
    ; set virtual interface table
    ; Get interface 'System.Collections.ICollection' of 'System.Collections.Hashtable+KeyCollection'
    %.r3 = getelementptr inbounds %"System.Collections.Hashtable+KeyCollection"* %.r1, i32 0, i32 1
    %.r4 = bitcast %"System.Collections.ICollection"* %.r3 to i8***
    store i8** getelementptr inbounds ([7 x i8*]* @"System.Collections.Hashtable+KeyCollection Virtual Table System.Collections.ICollection Interface", i64 0, i64 2), i8*** %.r4
    ret void
}



%"System.Collections.Hashtable+ValueCollection" = type {
    %"System.Object", 
    %"System.Collections.ICollection",
    %"System.Collections.Hashtable"*
}

@"System.Collections.Hashtable+ValueCollection Virtual Table" = linkonce_odr unnamed_addr constant [6 x i8*] [
    i8* null,
    i8* bitcast ({ i8*, i8*, i8* }* @"System.Collections.Hashtable+ValueCollection Info" to i8*),
    i8* bitcast (%"System.String"* (%"System.Object"*)* @"System.String System.Object.ToString()" to i8*),
    i8* bitcast (i1 (%"System.Object"*, %"System.Object"*)* @"Boolean System.Object.Equals(System.Object)" to i8*),
    i8* bitcast (i32 (%"System.Object"*)* @"Int32 System.Object.GetHashCode()" to i8*),
    i8* bitcast (void (%"System.Object"*)* @"Void System.Object.Finalize()" to i8*)
]

@"System.Collections.Hashtable+ValueCollection Virtual Table System.Collections.ICollection Interface" = linkonce_odr unnamed_addr constant [7 x i8*] [
    i8* inttoptr (i32 -1 to i8*),
    i8* bitcast ({ i8*, i8*, i8* }* @"System.Collections.Hashtable+ValueCollection Info" to i8*),
    i8* bitcast (%"System.Collections.IEnumerator"* (%"System.Collections.Hashtable+ValueCollection"*)* @"System.Collections.IEnumerator System.Collections.Hashtable+ValueCollection.GetEnumerator()" to i8*),
    i8* bitcast (void (%"System.Collections.Hashtable+ValueCollection"*, %"System.Array"*, i32)* @"Void System.Collections.Hashtable+ValueCollection.CopyTo(System.Array, Int32)" to i8*),
    i8* bitcast (i32 (%"System.Collections.Hashtable+ValueCollection"*)* @"Int32 System.Collections.Hashtable+ValueCollection.get_Count()" to i8*),
    i8* bitcast (%"System.Object"* (%"System.Collections.Hashtable+ValueCollection"*)* @"System.Object System.Collections.Hashtable+ValueCollection.get_SyncRoot()" to i8*),
    i8* bitcast (i1 (%"System.Collections.Hashtable+ValueCollection"*)* @"Boolean System.Collections.Hashtable+ValueCollection.get_IsSynchronized()" to i8*)
]

; RTTI class
@"System.Collections.Hashtable+ValueCollection String Name" = linkonce_odr constant [47 x i8] c"44System.Collections.Hashtable+ValueCollection\00"
@"System.Collections.Hashtable+ValueCollection Info" = linkonce_odr unnamed_addr constant { i8*, i8*, i8* } {
    i8* bitcast (i8** getelementptr inbounds (i8** @_ZTVN10__cxxabiv120__si_class_type_infoE, i32 2) to i8*),
    i8* getelementptr inbounds ([47 x i8]* @"System.Collections.Hashtable+ValueCollection String Name", i32 0, i32 0),
    i8* bitcast ({ i8*, i8* }* @"System.Object Info" to i8*)
}
; RTTI pointer
@"System.Collections.Hashtable+ValueCollection Pointer String Name" = linkonce_odr constant [48 x i8] c"P44System.Collections.Hashtable+ValueCollection\00"
@"System.Collections.Hashtable+ValueCollection Pointer Info" = linkonce_odr unnamed_addr constant { i8*, i8*, i32, i8* } {
    i8* bitcast (i8** getelementptr inbounds (i8** @_ZTVN10__cxxabiv119__pointer_type_infoE, i32 2) to i8*),
    i8* getelementptr inbounds ([48 x i8]* @"System.Collections.Hashtable+ValueCollection Pointer String Name", i32 0, i32 0),
    i32 0,
    i8* bitcast ({ i8*, i8*, i8* }* @"System.Collections.Hashtable+ValueCollection Info" to i8*)
}

; Init Object method
define void @"Void System.Collections.Hashtable+ValueCollection..init()"(%"System.Collections.Hashtable+ValueCollection"* %arg.this) #141 {
    %this = alloca %"System.Collections.Hashtable+ValueCollection"*, align 4
    store %"System.Collections.Hashtable+ValueCollection"* %arg.this, %"System.Collections.Hashtable+ValueCollection"** %this, align 4
    %.r1 = load %"System.Collections.Hashtable+ValueCollection"** %this, align 4
    ; set virtual table
    %.r2 = bitcast %"System.Collections.Hashtable+ValueCollection"* %.r1 to i8***
    store i8** getelementptr inbounds ([6 x i8*]* @"System.Collections.Hashtable+ValueCollection Virtual Table", i64 0, i64 2), i8*** %.r2
    ; set virtual interface table
    ; Get interface 'System.Collections.ICollection' of 'System.Collections.Hashtable+ValueCollection'
    %.r3 = getelementptr inbounds %"System.Collections.Hashtable+ValueCollection"* %.r1, i32 0, i32 1
    %.r4 = bitcast %"System.Collections.ICollection"* %.r3 to i8***
    store i8** getelementptr inbounds ([7 x i8*]* @"System.Collections.Hashtable+ValueCollection Virtual Table System.Collections.ICollection Interface", i64 0, i64 2), i8*** %.r4
    ret void
}



%"System.Collections.IComparer" = type {
    i32 (...)**
    
}

; RTTI class
@"System.Collections.IComparer String Name" = linkonce_odr constant [31 x i8] c"28System.Collections.IComparer\00"
@"System.Collections.IComparer Info" = linkonce_odr unnamed_addr constant { i8*, i8* } {
    i8* bitcast (i8** getelementptr inbounds (i8** @_ZTVN10__cxxabiv117__class_type_infoE, i32 2) to i8*),
    i8* getelementptr inbounds ([31 x i8]* @"System.Collections.IComparer String Name", i32 0, i32 0)
}
; RTTI pointer
@"System.Collections.IComparer Pointer String Name" = linkonce_odr constant [32 x i8] c"P28System.Collections.IComparer\00"
@"System.Collections.IComparer Pointer Info" = linkonce_odr unnamed_addr constant { i8*, i8*, i32, i8* } {
    i8* bitcast (i8** getelementptr inbounds (i8** @_ZTVN10__cxxabiv119__pointer_type_infoE, i32 2) to i8*),
    i8* getelementptr inbounds ([32 x i8]* @"System.Collections.IComparer Pointer String Name", i32 0, i32 0),
    i32 0,
    i8* bitcast ({ i8*, i8* }* @"System.Collections.IComparer Info" to i8*)
}

; Init Object method
define void @"Void System.Collections.IComparer..init()"(%"System.Collections.IComparer"* %arg.this) #142 {
    %this = alloca %"System.Collections.IComparer"*, align 4
    store %"System.Collections.IComparer"* %arg.this, %"System.Collections.IComparer"** %this, align 4
    %.r1 = load %"System.Collections.IComparer"** %this, align 4
    ret void
}



%"System.Collections.IEqualityComparer" = type {
    i32 (...)**
    
}

; RTTI class
@"System.Collections.IEqualityComparer String Name" = linkonce_odr constant [39 x i8] c"36System.Collections.IEqualityComparer\00"
@"System.Collections.IEqualityComparer Info" = linkonce_odr unnamed_addr constant { i8*, i8* } {
    i8* bitcast (i8** getelementptr inbounds (i8** @_ZTVN10__cxxabiv117__class_type_infoE, i32 2) to i8*),
    i8* getelementptr inbounds ([39 x i8]* @"System.Collections.IEqualityComparer String Name", i32 0, i32 0)
}
; RTTI pointer
@"System.Collections.IEqualityComparer Pointer String Name" = linkonce_odr constant [40 x i8] c"P36System.Collections.IEqualityComparer\00"
@"System.Collections.IEqualityComparer Pointer Info" = linkonce_odr unnamed_addr constant { i8*, i8*, i32, i8* } {
    i8* bitcast (i8** getelementptr inbounds (i8** @_ZTVN10__cxxabiv119__pointer_type_infoE, i32 2) to i8*),
    i8* getelementptr inbounds ([40 x i8]* @"System.Collections.IEqualityComparer Pointer String Name", i32 0, i32 0),
    i32 0,
    i8* bitcast ({ i8*, i8* }* @"System.Collections.IEqualityComparer Info" to i8*)
}

; Init Object method
